
MailBox.elf:     file format elf32-littlearm


Disassembly of section .text:

080001f0 <deregister_tm_clones>:
 80001f0:	4b04      	ldr	r3, [pc, #16]	; (8000204 <deregister_tm_clones+0x14>)
 80001f2:	4805      	ldr	r0, [pc, #20]	; (8000208 <deregister_tm_clones+0x18>)
 80001f4:	1a1b      	subs	r3, r3, r0
 80001f6:	2b06      	cmp	r3, #6
 80001f8:	d902      	bls.n	8000200 <deregister_tm_clones+0x10>
 80001fa:	4b04      	ldr	r3, [pc, #16]	; (800020c <deregister_tm_clones+0x1c>)
 80001fc:	b103      	cbz	r3, 8000200 <deregister_tm_clones+0x10>
 80001fe:	4718      	bx	r3
 8000200:	4770      	bx	lr
 8000202:	bf00      	nop
 8000204:	2000000f 	.word	0x2000000f
 8000208:	2000000c 	.word	0x2000000c
 800020c:	00000000 	.word	0x00000000

08000210 <register_tm_clones>:
 8000210:	4905      	ldr	r1, [pc, #20]	; (8000228 <register_tm_clones+0x18>)
 8000212:	4806      	ldr	r0, [pc, #24]	; (800022c <register_tm_clones+0x1c>)
 8000214:	1a09      	subs	r1, r1, r0
 8000216:	1089      	asrs	r1, r1, #2
 8000218:	eb01 71d1 	add.w	r1, r1, r1, lsr #31
 800021c:	1049      	asrs	r1, r1, #1
 800021e:	d002      	beq.n	8000226 <register_tm_clones+0x16>
 8000220:	4b03      	ldr	r3, [pc, #12]	; (8000230 <register_tm_clones+0x20>)
 8000222:	b103      	cbz	r3, 8000226 <register_tm_clones+0x16>
 8000224:	4718      	bx	r3
 8000226:	4770      	bx	lr
 8000228:	2000000c 	.word	0x2000000c
 800022c:	2000000c 	.word	0x2000000c
 8000230:	00000000 	.word	0x00000000

08000234 <__do_global_dtors_aux>:
 8000234:	b510      	push	{r4, lr}
 8000236:	4c06      	ldr	r4, [pc, #24]	; (8000250 <__do_global_dtors_aux+0x1c>)
 8000238:	7823      	ldrb	r3, [r4, #0]
 800023a:	b943      	cbnz	r3, 800024e <__do_global_dtors_aux+0x1a>
 800023c:	f7ff ffd8 	bl	80001f0 <deregister_tm_clones>
 8000240:	4b04      	ldr	r3, [pc, #16]	; (8000254 <__do_global_dtors_aux+0x20>)
 8000242:	b113      	cbz	r3, 800024a <__do_global_dtors_aux+0x16>
 8000244:	4804      	ldr	r0, [pc, #16]	; (8000258 <__do_global_dtors_aux+0x24>)
 8000246:	f3af 8000 	nop.w
 800024a:	2301      	movs	r3, #1
 800024c:	7023      	strb	r3, [r4, #0]
 800024e:	bd10      	pop	{r4, pc}
 8000250:	2000000c 	.word	0x2000000c
 8000254:	00000000 	.word	0x00000000
 8000258:	08002e0c 	.word	0x08002e0c

0800025c <frame_dummy>:
 800025c:	b508      	push	{r3, lr}
 800025e:	4b08      	ldr	r3, [pc, #32]	; (8000280 <frame_dummy+0x24>)
 8000260:	b11b      	cbz	r3, 800026a <frame_dummy+0xe>
 8000262:	4908      	ldr	r1, [pc, #32]	; (8000284 <frame_dummy+0x28>)
 8000264:	4808      	ldr	r0, [pc, #32]	; (8000288 <frame_dummy+0x2c>)
 8000266:	f3af 8000 	nop.w
 800026a:	4808      	ldr	r0, [pc, #32]	; (800028c <frame_dummy+0x30>)
 800026c:	6803      	ldr	r3, [r0, #0]
 800026e:	b913      	cbnz	r3, 8000276 <frame_dummy+0x1a>
 8000270:	e8bd 4008 	ldmia.w	sp!, {r3, lr}
 8000274:	e7cc      	b.n	8000210 <register_tm_clones>
 8000276:	4b06      	ldr	r3, [pc, #24]	; (8000290 <frame_dummy+0x34>)
 8000278:	2b00      	cmp	r3, #0
 800027a:	d0f9      	beq.n	8000270 <frame_dummy+0x14>
 800027c:	4798      	blx	r3
 800027e:	e7f7      	b.n	8000270 <frame_dummy+0x14>
 8000280:	00000000 	.word	0x00000000
 8000284:	20000010 	.word	0x20000010
 8000288:	08002e0c 	.word	0x08002e0c
 800028c:	2000000c 	.word	0x2000000c
 8000290:	00000000 	.word	0x00000000

08000294 <__libc_init_array>:
 8000294:	b570      	push	{r4, r5, r6, lr}
 8000296:	4e0f      	ldr	r6, [pc, #60]	; (80002d4 <__libc_init_array+0x40>)
 8000298:	4d0f      	ldr	r5, [pc, #60]	; (80002d8 <__libc_init_array+0x44>)
 800029a:	1b76      	subs	r6, r6, r5
 800029c:	10b6      	asrs	r6, r6, #2
 800029e:	bf18      	it	ne
 80002a0:	2400      	movne	r4, #0
 80002a2:	d005      	beq.n	80002b0 <__libc_init_array+0x1c>
 80002a4:	3401      	adds	r4, #1
 80002a6:	f855 3b04 	ldr.w	r3, [r5], #4
 80002aa:	4798      	blx	r3
 80002ac:	42a6      	cmp	r6, r4
 80002ae:	d1f9      	bne.n	80002a4 <__libc_init_array+0x10>
 80002b0:	4e0a      	ldr	r6, [pc, #40]	; (80002dc <__libc_init_array+0x48>)
 80002b2:	4d0b      	ldr	r5, [pc, #44]	; (80002e0 <__libc_init_array+0x4c>)
 80002b4:	f002 fdaa 	bl	8002e0c <_init>
 80002b8:	1b76      	subs	r6, r6, r5
 80002ba:	10b6      	asrs	r6, r6, #2
 80002bc:	bf18      	it	ne
 80002be:	2400      	movne	r4, #0
 80002c0:	d006      	beq.n	80002d0 <__libc_init_array+0x3c>
 80002c2:	3401      	adds	r4, #1
 80002c4:	f855 3b04 	ldr.w	r3, [r5], #4
 80002c8:	4798      	blx	r3
 80002ca:	42a6      	cmp	r6, r4
 80002cc:	d1f9      	bne.n	80002c2 <__libc_init_array+0x2e>
 80002ce:	bd70      	pop	{r4, r5, r6, pc}
 80002d0:	bd70      	pop	{r4, r5, r6, pc}
 80002d2:	bf00      	nop
 80002d4:	08002eac 	.word	0x08002eac
 80002d8:	08002eac 	.word	0x08002eac
 80002dc:	08002eb0 	.word	0x08002eb0
 80002e0:	08002eac 	.word	0x08002eac

080002e4 <memcpy>:
 80002e4:	4684      	mov	ip, r0
 80002e6:	ea41 0300 	orr.w	r3, r1, r0
 80002ea:	f013 0303 	ands.w	r3, r3, #3
 80002ee:	d149      	bne.n	8000384 <memcpy+0xa0>
 80002f0:	3a40      	subs	r2, #64	; 0x40
 80002f2:	d323      	bcc.n	800033c <memcpy+0x58>
 80002f4:	680b      	ldr	r3, [r1, #0]
 80002f6:	6003      	str	r3, [r0, #0]
 80002f8:	684b      	ldr	r3, [r1, #4]
 80002fa:	6043      	str	r3, [r0, #4]
 80002fc:	688b      	ldr	r3, [r1, #8]
 80002fe:	6083      	str	r3, [r0, #8]
 8000300:	68cb      	ldr	r3, [r1, #12]
 8000302:	60c3      	str	r3, [r0, #12]
 8000304:	690b      	ldr	r3, [r1, #16]
 8000306:	6103      	str	r3, [r0, #16]
 8000308:	694b      	ldr	r3, [r1, #20]
 800030a:	6143      	str	r3, [r0, #20]
 800030c:	698b      	ldr	r3, [r1, #24]
 800030e:	6183      	str	r3, [r0, #24]
 8000310:	69cb      	ldr	r3, [r1, #28]
 8000312:	61c3      	str	r3, [r0, #28]
 8000314:	6a0b      	ldr	r3, [r1, #32]
 8000316:	6203      	str	r3, [r0, #32]
 8000318:	6a4b      	ldr	r3, [r1, #36]	; 0x24
 800031a:	6243      	str	r3, [r0, #36]	; 0x24
 800031c:	6a8b      	ldr	r3, [r1, #40]	; 0x28
 800031e:	6283      	str	r3, [r0, #40]	; 0x28
 8000320:	6acb      	ldr	r3, [r1, #44]	; 0x2c
 8000322:	62c3      	str	r3, [r0, #44]	; 0x2c
 8000324:	6b0b      	ldr	r3, [r1, #48]	; 0x30
 8000326:	6303      	str	r3, [r0, #48]	; 0x30
 8000328:	6b4b      	ldr	r3, [r1, #52]	; 0x34
 800032a:	6343      	str	r3, [r0, #52]	; 0x34
 800032c:	6b8b      	ldr	r3, [r1, #56]	; 0x38
 800032e:	6383      	str	r3, [r0, #56]	; 0x38
 8000330:	6bcb      	ldr	r3, [r1, #60]	; 0x3c
 8000332:	63c3      	str	r3, [r0, #60]	; 0x3c
 8000334:	3040      	adds	r0, #64	; 0x40
 8000336:	3140      	adds	r1, #64	; 0x40
 8000338:	3a40      	subs	r2, #64	; 0x40
 800033a:	d2db      	bcs.n	80002f4 <memcpy+0x10>
 800033c:	3230      	adds	r2, #48	; 0x30
 800033e:	d30b      	bcc.n	8000358 <memcpy+0x74>
 8000340:	680b      	ldr	r3, [r1, #0]
 8000342:	6003      	str	r3, [r0, #0]
 8000344:	684b      	ldr	r3, [r1, #4]
 8000346:	6043      	str	r3, [r0, #4]
 8000348:	688b      	ldr	r3, [r1, #8]
 800034a:	6083      	str	r3, [r0, #8]
 800034c:	68cb      	ldr	r3, [r1, #12]
 800034e:	60c3      	str	r3, [r0, #12]
 8000350:	3010      	adds	r0, #16
 8000352:	3110      	adds	r1, #16
 8000354:	3a10      	subs	r2, #16
 8000356:	d2f3      	bcs.n	8000340 <memcpy+0x5c>
 8000358:	320c      	adds	r2, #12
 800035a:	d305      	bcc.n	8000368 <memcpy+0x84>
 800035c:	f851 3b04 	ldr.w	r3, [r1], #4
 8000360:	f840 3b04 	str.w	r3, [r0], #4
 8000364:	3a04      	subs	r2, #4
 8000366:	d2f9      	bcs.n	800035c <memcpy+0x78>
 8000368:	3204      	adds	r2, #4
 800036a:	d008      	beq.n	800037e <memcpy+0x9a>
 800036c:	07d2      	lsls	r2, r2, #31
 800036e:	bf1c      	itt	ne
 8000370:	f811 3b01 	ldrbne.w	r3, [r1], #1
 8000374:	f800 3b01 	strbne.w	r3, [r0], #1
 8000378:	d301      	bcc.n	800037e <memcpy+0x9a>
 800037a:	880b      	ldrh	r3, [r1, #0]
 800037c:	8003      	strh	r3, [r0, #0]
 800037e:	4660      	mov	r0, ip
 8000380:	4770      	bx	lr
 8000382:	bf00      	nop
 8000384:	2a08      	cmp	r2, #8
 8000386:	d313      	bcc.n	80003b0 <memcpy+0xcc>
 8000388:	078b      	lsls	r3, r1, #30
 800038a:	d0b1      	beq.n	80002f0 <memcpy+0xc>
 800038c:	f010 0303 	ands.w	r3, r0, #3
 8000390:	d0ae      	beq.n	80002f0 <memcpy+0xc>
 8000392:	f1c3 0304 	rsb	r3, r3, #4
 8000396:	1ad2      	subs	r2, r2, r3
 8000398:	07db      	lsls	r3, r3, #31
 800039a:	bf1c      	itt	ne
 800039c:	f811 3b01 	ldrbne.w	r3, [r1], #1
 80003a0:	f800 3b01 	strbne.w	r3, [r0], #1
 80003a4:	d3a4      	bcc.n	80002f0 <memcpy+0xc>
 80003a6:	f831 3b02 	ldrh.w	r3, [r1], #2
 80003aa:	f820 3b02 	strh.w	r3, [r0], #2
 80003ae:	e79f      	b.n	80002f0 <memcpy+0xc>
 80003b0:	3a04      	subs	r2, #4
 80003b2:	d3d9      	bcc.n	8000368 <memcpy+0x84>
 80003b4:	3a01      	subs	r2, #1
 80003b6:	f811 3b01 	ldrb.w	r3, [r1], #1
 80003ba:	f800 3b01 	strb.w	r3, [r0], #1
 80003be:	d2f9      	bcs.n	80003b4 <memcpy+0xd0>
 80003c0:	780b      	ldrb	r3, [r1, #0]
 80003c2:	7003      	strb	r3, [r0, #0]
 80003c4:	784b      	ldrb	r3, [r1, #1]
 80003c6:	7043      	strb	r3, [r0, #1]
 80003c8:	788b      	ldrb	r3, [r1, #2]
 80003ca:	7083      	strb	r3, [r0, #2]
 80003cc:	4660      	mov	r0, ip
 80003ce:	4770      	bx	lr

080003d0 <MX_GPIO_Init>:
 80003d0:	e92d 41f0 	stmdb	sp!, {r4, r5, r6, r7, r8, lr}
 80003d4:	b086      	sub	sp, #24
 80003d6:	4b1d      	ldr	r3, [pc, #116]	; (800044c <MX_GPIO_Init+0x7c>)
 80003d8:	699a      	ldr	r2, [r3, #24]
 80003da:	f042 0220 	orr.w	r2, r2, #32
 80003de:	619a      	str	r2, [r3, #24]
 80003e0:	699a      	ldr	r2, [r3, #24]
 80003e2:	f002 0220 	and.w	r2, r2, #32
 80003e6:	9200      	str	r2, [sp, #0]
 80003e8:	9a00      	ldr	r2, [sp, #0]
 80003ea:	699a      	ldr	r2, [r3, #24]
 80003ec:	f042 0204 	orr.w	r2, r2, #4
 80003f0:	619a      	str	r2, [r3, #24]
 80003f2:	699b      	ldr	r3, [r3, #24]
 80003f4:	f003 0304 	and.w	r3, r3, #4
 80003f8:	9301      	str	r3, [sp, #4]
 80003fa:	9b01      	ldr	r3, [sp, #4]
 80003fc:	f8df 8054 	ldr.w	r8, [pc, #84]	; 8000454 <MX_GPIO_Init+0x84>
 8000400:	2200      	movs	r2, #0
 8000402:	f44f 7180 	mov.w	r1, #256	; 0x100
 8000406:	4640      	mov	r0, r8
 8000408:	f000 ffee 	bl	80013e8 <HAL_GPIO_WritePin>
 800040c:	4c10      	ldr	r4, [pc, #64]	; (8000450 <MX_GPIO_Init+0x80>)
 800040e:	2200      	movs	r2, #0
 8000410:	2104      	movs	r1, #4
 8000412:	4620      	mov	r0, r4
 8000414:	f000 ffe8 	bl	80013e8 <HAL_GPIO_WritePin>
 8000418:	f44f 7380 	mov.w	r3, #256	; 0x100
 800041c:	9302      	str	r3, [sp, #8]
 800041e:	2701      	movs	r7, #1
 8000420:	9703      	str	r7, [sp, #12]
 8000422:	2600      	movs	r6, #0
 8000424:	9604      	str	r6, [sp, #16]
 8000426:	2502      	movs	r5, #2
 8000428:	9505      	str	r5, [sp, #20]
 800042a:	a902      	add	r1, sp, #8
 800042c:	4640      	mov	r0, r8
 800042e:	f000 fee5 	bl	80011fc <HAL_GPIO_Init>
 8000432:	2304      	movs	r3, #4
 8000434:	9302      	str	r3, [sp, #8]
 8000436:	9703      	str	r7, [sp, #12]
 8000438:	9604      	str	r6, [sp, #16]
 800043a:	9505      	str	r5, [sp, #20]
 800043c:	a902      	add	r1, sp, #8
 800043e:	4620      	mov	r0, r4
 8000440:	f000 fedc 	bl	80011fc <HAL_GPIO_Init>
 8000444:	b006      	add	sp, #24
 8000446:	e8bd 81f0 	ldmia.w	sp!, {r4, r5, r6, r7, r8, pc}
 800044a:	bf00      	nop
 800044c:	40021000 	.word	0x40021000
 8000450:	40011400 	.word	0x40011400
 8000454:	40010800 	.word	0x40010800

08000458 <MailProducerTask>:
 8000458:	b510      	push	{r4, lr}
 800045a:	b08a      	sub	sp, #40	; 0x28
 800045c:	2301      	movs	r3, #1
 800045e:	9301      	str	r3, [sp, #4]
 8000460:	2202      	movs	r2, #2
 8000462:	9202      	str	r2, [sp, #8]
 8000464:	2303      	movs	r3, #3
 8000466:	f88d 300c 	strb.w	r3, [sp, #12]
 800046a:	9204      	str	r2, [sp, #16]
 800046c:	9305      	str	r3, [sp, #20]
 800046e:	2204      	movs	r2, #4
 8000470:	f88d 2018 	strb.w	r2, [sp, #24]
 8000474:	9307      	str	r3, [sp, #28]
 8000476:	9208      	str	r2, [sp, #32]
 8000478:	2305      	movs	r3, #5
 800047a:	f88d 3024 	strb.w	r3, [sp, #36]	; 0x24
 800047e:	220a      	movs	r2, #10
 8000480:	4b0c      	ldr	r3, [pc, #48]	; (80004b4 <MailProducerTask+0x5c>)
 8000482:	601a      	str	r2, [r3, #0]
 8000484:	4c0c      	ldr	r4, [pc, #48]	; (80004b8 <MailProducerTask+0x60>)
 8000486:	a901      	add	r1, sp, #4
 8000488:	6820      	ldr	r0, [r4, #0]
 800048a:	f002 fc11 	bl	8002cb0 <osMailPut>
 800048e:	2005      	movs	r0, #5
 8000490:	f002 fba0 	bl	8002bd4 <osDelay>
 8000494:	a904      	add	r1, sp, #16
 8000496:	6820      	ldr	r0, [r4, #0]
 8000498:	f002 fc0a 	bl	8002cb0 <osMailPut>
 800049c:	2005      	movs	r0, #5
 800049e:	f002 fb99 	bl	8002bd4 <osDelay>
 80004a2:	a907      	add	r1, sp, #28
 80004a4:	6820      	ldr	r0, [r4, #0]
 80004a6:	f002 fc03 	bl	8002cb0 <osMailPut>
 80004aa:	200f      	movs	r0, #15
 80004ac:	f002 fb92 	bl	8002bd4 <osDelay>
 80004b0:	e7e5      	b.n	800047e <MailProducerTask+0x26>
 80004b2:	bf00      	nop
 80004b4:	2000002c 	.word	0x2000002c
 80004b8:	20000d84 	.word	0x20000d84

080004bc <MailConsumerTask>:
 80004bc:	b570      	push	{r4, r5, r6, lr}
 80004be:	b084      	sub	sp, #16
 80004c0:	220b      	movs	r2, #11
 80004c2:	4b18      	ldr	r3, [pc, #96]	; (8000524 <MailConsumerTask+0x68>)
 80004c4:	601a      	str	r2, [r3, #0]
 80004c6:	f04f 32ff 	mov.w	r2, #4294967295
 80004ca:	4b17      	ldr	r3, [pc, #92]	; (8000528 <MailConsumerTask+0x6c>)
 80004cc:	6819      	ldr	r1, [r3, #0]
 80004ce:	a801      	add	r0, sp, #4
 80004d0:	f002 fc22 	bl	8002d18 <osMailGet>
 80004d4:	9b01      	ldr	r3, [sp, #4]
 80004d6:	2b20      	cmp	r3, #32
 80004d8:	d1f2      	bne.n	80004c0 <MailConsumerTask+0x4>
 80004da:	9b02      	ldr	r3, [sp, #8]
 80004dc:	681b      	ldr	r3, [r3, #0]
 80004de:	e01c      	b.n	800051a <MailConsumerTask+0x5e>
 80004e0:	4c12      	ldr	r4, [pc, #72]	; (800052c <MailConsumerTask+0x70>)
 80004e2:	6823      	ldr	r3, [r4, #0]
 80004e4:	f423 6380 	bic.w	r3, r3, #1024	; 0x400
 80004e8:	6023      	str	r3, [r4, #0]
 80004ea:	4d11      	ldr	r5, [pc, #68]	; (8000530 <MailConsumerTask+0x74>)
 80004ec:	2200      	movs	r2, #0
 80004ee:	f44f 7180 	mov.w	r1, #256	; 0x100
 80004f2:	4628      	mov	r0, r5
 80004f4:	f000 ff78 	bl	80013e8 <HAL_GPIO_WritePin>
 80004f8:	6823      	ldr	r3, [r4, #0]
 80004fa:	f443 6380 	orr.w	r3, r3, #1024	; 0x400
 80004fe:	6023      	str	r3, [r4, #0]
 8000500:	200a      	movs	r0, #10
 8000502:	f002 fb67 	bl	8002bd4 <osDelay>
 8000506:	2201      	movs	r2, #1
 8000508:	f44f 7180 	mov.w	r1, #256	; 0x100
 800050c:	4628      	mov	r0, r5
 800050e:	f000 ff6b 	bl	80013e8 <HAL_GPIO_WritePin>
 8000512:	200a      	movs	r0, #10
 8000514:	f002 fb5e 	bl	8002bd4 <osDelay>
 8000518:	4633      	mov	r3, r6
 800051a:	1e5e      	subs	r6, r3, #1
 800051c:	2b00      	cmp	r3, #0
 800051e:	d1df      	bne.n	80004e0 <MailConsumerTask+0x24>
 8000520:	e7ce      	b.n	80004c0 <MailConsumerTask+0x4>
 8000522:	bf00      	nop
 8000524:	2000002c 	.word	0x2000002c
 8000528:	20000d84 	.word	0x20000d84
 800052c:	e0041000 	.word	0xe0041000
 8000530:	40010800 	.word	0x40010800

08000534 <configure_tracing>:
 8000534:	4a28      	ldr	r2, [pc, #160]	; (80005d8 <configure_tracing+0xa4>)
 8000536:	6993      	ldr	r3, [r2, #24]
 8000538:	f043 0301 	orr.w	r3, r3, #1
 800053c:	6193      	str	r3, [r2, #24]
 800053e:	f5a2 3288 	sub.w	r2, r2, #69632	; 0x11000
 8000542:	6853      	ldr	r3, [r2, #4]
 8000544:	f043 7300 	orr.w	r3, r3, #33554432	; 0x2000000
 8000548:	6053      	str	r3, [r2, #4]
 800054a:	4b24      	ldr	r3, [pc, #144]	; (80005dc <configure_tracing+0xa8>)
 800054c:	685a      	ldr	r2, [r3, #4]
 800054e:	f042 0220 	orr.w	r2, r2, #32
 8000552:	605a      	str	r2, [r3, #4]
 8000554:	685a      	ldr	r2, [r3, #4]
 8000556:	685b      	ldr	r3, [r3, #4]
 8000558:	f013 0f20 	tst.w	r3, #32
 800055c:	d03b      	beq.n	80005d6 <configure_tracing+0xa2>
 800055e:	4a20      	ldr	r2, [pc, #128]	; (80005e0 <configure_tracing+0xac>)
 8000560:	68d3      	ldr	r3, [r2, #12]
 8000562:	f043 7380 	orr.w	r3, r3, #16777216	; 0x1000000
 8000566:	60d3      	str	r3, [r2, #12]
 8000568:	4b1e      	ldr	r3, [pc, #120]	; (80005e4 <configure_tracing+0xb0>)
 800056a:	2208      	movs	r2, #8
 800056c:	611a      	str	r2, [r3, #16]
 800056e:	2102      	movs	r1, #2
 8000570:	f8c3 10f0 	str.w	r1, [r3, #240]	; 0xf0
 8000574:	f44f 7281 	mov.w	r2, #258	; 0x102
 8000578:	f8c3 2304 	str.w	r2, [r3, #772]	; 0x304
 800057c:	4a1a      	ldr	r2, [pc, #104]	; (80005e8 <configure_tracing+0xb4>)
 800057e:	f5a3 337c 	sub.w	r3, r3, #258048	; 0x3f000
 8000582:	601a      	str	r2, [r3, #0]
 8000584:	f04f 4360 	mov.w	r3, #3758096384	; 0xe0000000
 8000588:	f1a2 5269 	sub.w	r2, r2, #977272832	; 0x3a400000
 800058c:	f5a2 12a2 	sub.w	r2, r2, #1327104	; 0x144000
 8000590:	f6a2 32ac 	subw	r2, r2, #2988	; 0xbac
 8000594:	f8c3 2fb0 	str.w	r2, [r3, #4016]	; 0xfb0
 8000598:	4814      	ldr	r0, [pc, #80]	; (80005ec <configure_tracing+0xb8>)
 800059a:	f8c3 0e80 	str.w	r0, [r3, #3712]	; 0xe80
 800059e:	f04f 30ff 	mov.w	r0, #4294967295
 80005a2:	f8c3 0e00 	str.w	r0, [r3, #3584]	; 0xe00
 80005a6:	f503 2382 	add.w	r3, r3, #266240	; 0x41000
 80005aa:	f8c3 2fb0 	str.w	r2, [r3, #4016]	; 0xfb0
 80005ae:	681a      	ldr	r2, [r3, #0]
 80005b0:	f442 6280 	orr.w	r2, r2, #1024	; 0x400
 80005b4:	601a      	str	r2, [r3, #0]
 80005b6:	f44f 6219 	mov.w	r2, #2448	; 0x990
 80005ba:	601a      	str	r2, [r3, #0]
 80005bc:	f8c3 1200 	str.w	r1, [r3, #512]	; 0x200
 80005c0:	f04f 7280 	mov.w	r2, #16777216	; 0x1000000
 80005c4:	625a      	str	r2, [r3, #36]	; 0x24
 80005c6:	629a      	str	r2, [r3, #40]	; 0x28
 80005c8:	2218      	movs	r2, #24
 80005ca:	62da      	str	r2, [r3, #44]	; 0x2c
 80005cc:	f244 026f 	movw	r2, #16495	; 0x406f
 80005d0:	609a      	str	r2, [r3, #8]
 80005d2:	226f      	movs	r2, #111	; 0x6f
 80005d4:	621a      	str	r2, [r3, #32]
 80005d6:	4770      	bx	lr
 80005d8:	40021000 	.word	0x40021000
 80005dc:	e0042000 	.word	0xe0042000
 80005e0:	e000edf0 	.word	0xe000edf0
 80005e4:	e0040000 	.word	0xe0040000
 80005e8:	00011a01 	.word	0x00011a01
 80005ec:	0001000f 	.word	0x0001000f

080005f0 <configure_watchpoint>:
 80005f0:	4b06      	ldr	r3, [pc, #24]	; (800060c <configure_watchpoint+0x1c>)
 80005f2:	4a07      	ldr	r2, [pc, #28]	; (8000610 <configure_watchpoint+0x20>)
 80005f4:	621a      	str	r2, [r3, #32]
 80005f6:	2208      	movs	r2, #8
 80005f8:	625a      	str	r2, [r3, #36]	; 0x24
 80005fa:	2222      	movs	r2, #34	; 0x22
 80005fc:	629a      	str	r2, [r3, #40]	; 0x28
 80005fe:	4a05      	ldr	r2, [pc, #20]	; (8000614 <configure_watchpoint+0x24>)
 8000600:	631a      	str	r2, [r3, #48]	; 0x30
 8000602:	2202      	movs	r2, #2
 8000604:	635a      	str	r2, [r3, #52]	; 0x34
 8000606:	2203      	movs	r2, #3
 8000608:	639a      	str	r2, [r3, #56]	; 0x38
 800060a:	4770      	bx	lr
 800060c:	e0001000 	.word	0xe0001000
 8000610:	40011400 	.word	0x40011400
 8000614:	2000002c 	.word	0x2000002c

08000618 <HAL_TIM_PeriodElapsedCallback>:
 8000618:	b508      	push	{r3, lr}
 800061a:	6802      	ldr	r2, [r0, #0]
 800061c:	4b0e      	ldr	r3, [pc, #56]	; (8000658 <HAL_TIM_PeriodElapsedCallback+0x40>)
 800061e:	429a      	cmp	r2, r3
 8000620:	d118      	bne.n	8000654 <HAL_TIM_PeriodElapsedCallback+0x3c>
 8000622:	f000 fa95 	bl	8000b50 <HAL_IncTick>
 8000626:	4a0d      	ldr	r2, [pc, #52]	; (800065c <HAL_TIM_PeriodElapsedCallback+0x44>)
 8000628:	6813      	ldr	r3, [r2, #0]
 800062a:	3301      	adds	r3, #1
 800062c:	6013      	str	r3, [r2, #0]
 800062e:	2b01      	cmp	r3, #1
 8000630:	d104      	bne.n	800063c <HAL_TIM_PeriodElapsedCallback+0x24>
 8000632:	2200      	movs	r2, #0
 8000634:	2104      	movs	r1, #4
 8000636:	480a      	ldr	r0, [pc, #40]	; (8000660 <HAL_TIM_PeriodElapsedCallback+0x48>)
 8000638:	f000 fed6 	bl	80013e8 <HAL_GPIO_WritePin>
 800063c:	4b07      	ldr	r3, [pc, #28]	; (800065c <HAL_TIM_PeriodElapsedCallback+0x44>)
 800063e:	681b      	ldr	r3, [r3, #0]
 8000640:	2b02      	cmp	r3, #2
 8000642:	d107      	bne.n	8000654 <HAL_TIM_PeriodElapsedCallback+0x3c>
 8000644:	2201      	movs	r2, #1
 8000646:	2104      	movs	r1, #4
 8000648:	4805      	ldr	r0, [pc, #20]	; (8000660 <HAL_TIM_PeriodElapsedCallback+0x48>)
 800064a:	f000 fecd 	bl	80013e8 <HAL_GPIO_WritePin>
 800064e:	2200      	movs	r2, #0
 8000650:	4b02      	ldr	r3, [pc, #8]	; (800065c <HAL_TIM_PeriodElapsedCallback+0x44>)
 8000652:	601a      	str	r2, [r3, #0]
 8000654:	bd08      	pop	{r3, pc}
 8000656:	bf00      	nop
 8000658:	40000800 	.word	0x40000800
 800065c:	20000028 	.word	0x20000028
 8000660:	40011400 	.word	0x40011400

08000664 <_Error_Handler>:
 8000664:	e7fe      	b.n	8000664 <_Error_Handler>
 8000666:	bf00      	nop

08000668 <SystemClock_Config>:
 8000668:	b500      	push	{lr}
 800066a:	b091      	sub	sp, #68	; 0x44
 800066c:	2201      	movs	r2, #1
 800066e:	9206      	str	r2, [sp, #24]
 8000670:	f44f 3380 	mov.w	r3, #65536	; 0x10000
 8000674:	9307      	str	r3, [sp, #28]
 8000676:	2100      	movs	r1, #0
 8000678:	9108      	str	r1, [sp, #32]
 800067a:	920a      	str	r2, [sp, #40]	; 0x28
 800067c:	2202      	movs	r2, #2
 800067e:	920d      	str	r2, [sp, #52]	; 0x34
 8000680:	930e      	str	r3, [sp, #56]	; 0x38
 8000682:	f44f 13e0 	mov.w	r3, #1835008	; 0x1c0000
 8000686:	930f      	str	r3, [sp, #60]	; 0x3c
 8000688:	a806      	add	r0, sp, #24
 800068a:	f000 fa89 	bl	8000ba0 <HAL_RCC_OscConfig>
 800068e:	b120      	cbz	r0, 800069a <SystemClock_Config+0x32>
 8000690:	f240 1163 	movw	r1, #355	; 0x163
 8000694:	4814      	ldr	r0, [pc, #80]	; (80006e8 <SystemClock_Config+0x80>)
 8000696:	f7ff ffe5 	bl	8000664 <_Error_Handler>
 800069a:	230f      	movs	r3, #15
 800069c:	9301      	str	r3, [sp, #4]
 800069e:	2102      	movs	r1, #2
 80006a0:	9102      	str	r1, [sp, #8]
 80006a2:	2300      	movs	r3, #0
 80006a4:	9303      	str	r3, [sp, #12]
 80006a6:	f44f 6280 	mov.w	r2, #1024	; 0x400
 80006aa:	9204      	str	r2, [sp, #16]
 80006ac:	9305      	str	r3, [sp, #20]
 80006ae:	a801      	add	r0, sp, #4
 80006b0:	f000 fcae 	bl	8001010 <HAL_RCC_ClockConfig>
 80006b4:	b120      	cbz	r0, 80006c0 <SystemClock_Config+0x58>
 80006b6:	f240 1171 	movw	r1, #369	; 0x171
 80006ba:	480b      	ldr	r0, [pc, #44]	; (80006e8 <SystemClock_Config+0x80>)
 80006bc:	f7ff ffd2 	bl	8000664 <_Error_Handler>
 80006c0:	f000 fd68 	bl	8001194 <HAL_RCC_GetHCLKFreq>
 80006c4:	4b09      	ldr	r3, [pc, #36]	; (80006ec <SystemClock_Config+0x84>)
 80006c6:	fba3 3000 	umull	r3, r0, r3, r0
 80006ca:	0980      	lsrs	r0, r0, #6
 80006cc:	f000 fee2 	bl	8001494 <HAL_SYSTICK_Config>
 80006d0:	2004      	movs	r0, #4
 80006d2:	f000 fef5 	bl	80014c0 <HAL_SYSTICK_CLKSourceConfig>
 80006d6:	2200      	movs	r2, #0
 80006d8:	210f      	movs	r1, #15
 80006da:	f04f 30ff 	mov.w	r0, #4294967295
 80006de:	f000 fe9b 	bl	8001418 <HAL_NVIC_SetPriority>
 80006e2:	b011      	add	sp, #68	; 0x44
 80006e4:	f85d fb04 	ldr.w	pc, [sp], #4
 80006e8:	08002e60 	.word	0x08002e60
 80006ec:	10624dd3 	.word	0x10624dd3

080006f0 <main>:
 80006f0:	b570      	push	{r4, r5, r6, lr}
 80006f2:	b08e      	sub	sp, #56	; 0x38
 80006f4:	f000 fa1a 	bl	8000b2c <HAL_Init>
 80006f8:	f7ff ffb6 	bl	8000668 <SystemClock_Config>
 80006fc:	f7ff fe68 	bl	80003d0 <MX_GPIO_Init>
 8000700:	f7ff ff18 	bl	8000534 <configure_tracing>
 8000704:	f7ff ff74 	bl	80005f0 <configure_watchpoint>
 8000708:	230f      	movs	r3, #15
 800070a:	930a      	str	r3, [sp, #40]	; 0x28
 800070c:	230c      	movs	r3, #12
 800070e:	930b      	str	r3, [sp, #44]	; 0x2c
 8000710:	ab0d      	add	r3, sp, #52	; 0x34
 8000712:	930c      	str	r3, [sp, #48]	; 0x30
 8000714:	2100      	movs	r1, #0
 8000716:	a80a      	add	r0, sp, #40	; 0x28
 8000718:	f002 fa9a 	bl	8002c50 <osMailCreate>
 800071c:	4b0e      	ldr	r3, [pc, #56]	; (8000758 <main+0x68>)
 800071e:	6018      	str	r0, [r3, #0]
 8000720:	4c0e      	ldr	r4, [pc, #56]	; (800075c <main+0x6c>)
 8000722:	ad05      	add	r5, sp, #20
 8000724:	4626      	mov	r6, r4
 8000726:	ce0f      	ldmia	r6!, {r0, r1, r2, r3}
 8000728:	c50f      	stmia	r5!, {r0, r1, r2, r3}
 800072a:	6833      	ldr	r3, [r6, #0]
 800072c:	602b      	str	r3, [r5, #0]
 800072e:	2100      	movs	r1, #0
 8000730:	a805      	add	r0, sp, #20
 8000732:	f002 fa35 	bl	8002ba0 <osThreadCreate>
 8000736:	4b0a      	ldr	r3, [pc, #40]	; (8000760 <main+0x70>)
 8000738:	6018      	str	r0, [r3, #0]
 800073a:	466d      	mov	r5, sp
 800073c:	3414      	adds	r4, #20
 800073e:	cc0f      	ldmia	r4!, {r0, r1, r2, r3}
 8000740:	c50f      	stmia	r5!, {r0, r1, r2, r3}
 8000742:	6823      	ldr	r3, [r4, #0]
 8000744:	602b      	str	r3, [r5, #0]
 8000746:	2100      	movs	r1, #0
 8000748:	4668      	mov	r0, sp
 800074a:	f002 fa29 	bl	8002ba0 <osThreadCreate>
 800074e:	4b05      	ldr	r3, [pc, #20]	; (8000764 <main+0x74>)
 8000750:	6018      	str	r0, [r3, #0]
 8000752:	f002 fa1f 	bl	8002b94 <osKernelStart>
 8000756:	e7fe      	b.n	8000756 <main+0x66>
 8000758:	20000d84 	.word	0x20000d84
 800075c:	08002e24 	.word	0x08002e24
 8000760:	20000d7c 	.word	0x20000d7c
 8000764:	20000d80 	.word	0x20000d80

08000768 <NMI_Handler>:
 8000768:	4770      	bx	lr
 800076a:	bf00      	nop

0800076c <HardFault_Handler>:
 800076c:	e7fe      	b.n	800076c <HardFault_Handler>
 800076e:	bf00      	nop

08000770 <MemManage_Handler>:
 8000770:	e7fe      	b.n	8000770 <MemManage_Handler>
 8000772:	bf00      	nop

08000774 <BusFault_Handler>:
 8000774:	e7fe      	b.n	8000774 <BusFault_Handler>
 8000776:	bf00      	nop

08000778 <UsageFault_Handler>:
 8000778:	e7fe      	b.n	8000778 <UsageFault_Handler>
 800077a:	bf00      	nop

0800077c <DebugMon_Handler>:
 800077c:	4770      	bx	lr
 800077e:	bf00      	nop

08000780 <SysTick_Handler>:
 8000780:	b508      	push	{r3, lr}
 8000782:	f002 fb15 	bl	8002db0 <osSystickHandler>
 8000786:	bd08      	pop	{r3, pc}

08000788 <TIM4_IRQHandler>:
 8000788:	b508      	push	{r3, lr}
 800078a:	4802      	ldr	r0, [pc, #8]	; (8000794 <TIM4_IRQHandler+0xc>)
 800078c:	f000 f8a8 	bl	80008e0 <HAL_TIM_IRQHandler>
 8000790:	bd08      	pop	{r3, pc}
 8000792:	bf00      	nop
 8000794:	20000d88 	.word	0x20000d88

08000798 <HAL_MspInit>:
 8000798:	b500      	push	{lr}
 800079a:	b083      	sub	sp, #12
 800079c:	4b24      	ldr	r3, [pc, #144]	; (8000830 <HAL_MspInit+0x98>)
 800079e:	699a      	ldr	r2, [r3, #24]
 80007a0:	f042 0201 	orr.w	r2, r2, #1
 80007a4:	619a      	str	r2, [r3, #24]
 80007a6:	699a      	ldr	r2, [r3, #24]
 80007a8:	f002 0201 	and.w	r2, r2, #1
 80007ac:	9200      	str	r2, [sp, #0]
 80007ae:	9a00      	ldr	r2, [sp, #0]
 80007b0:	69da      	ldr	r2, [r3, #28]
 80007b2:	f042 5280 	orr.w	r2, r2, #268435456	; 0x10000000
 80007b6:	61da      	str	r2, [r3, #28]
 80007b8:	69db      	ldr	r3, [r3, #28]
 80007ba:	f003 5380 	and.w	r3, r3, #268435456	; 0x10000000
 80007be:	9301      	str	r3, [sp, #4]
 80007c0:	9b01      	ldr	r3, [sp, #4]
 80007c2:	2003      	movs	r0, #3
 80007c4:	f000 fe16 	bl	80013f4 <HAL_NVIC_SetPriorityGrouping>
 80007c8:	2200      	movs	r2, #0
 80007ca:	4611      	mov	r1, r2
 80007cc:	f06f 000b 	mvn.w	r0, #11
 80007d0:	f000 fe22 	bl	8001418 <HAL_NVIC_SetPriority>
 80007d4:	2200      	movs	r2, #0
 80007d6:	4611      	mov	r1, r2
 80007d8:	f06f 000a 	mvn.w	r0, #10
 80007dc:	f000 fe1c 	bl	8001418 <HAL_NVIC_SetPriority>
 80007e0:	2200      	movs	r2, #0
 80007e2:	4611      	mov	r1, r2
 80007e4:	f06f 0009 	mvn.w	r0, #9
 80007e8:	f000 fe16 	bl	8001418 <HAL_NVIC_SetPriority>
 80007ec:	2200      	movs	r2, #0
 80007ee:	4611      	mov	r1, r2
 80007f0:	f06f 0004 	mvn.w	r0, #4
 80007f4:	f000 fe10 	bl	8001418 <HAL_NVIC_SetPriority>
 80007f8:	2200      	movs	r2, #0
 80007fa:	4611      	mov	r1, r2
 80007fc:	f06f 0003 	mvn.w	r0, #3
 8000800:	f000 fe0a 	bl	8001418 <HAL_NVIC_SetPriority>
 8000804:	2200      	movs	r2, #0
 8000806:	210f      	movs	r1, #15
 8000808:	f06f 0001 	mvn.w	r0, #1
 800080c:	f000 fe04 	bl	8001418 <HAL_NVIC_SetPriority>
 8000810:	2200      	movs	r2, #0
 8000812:	210f      	movs	r1, #15
 8000814:	f04f 30ff 	mov.w	r0, #4294967295
 8000818:	f000 fdfe 	bl	8001418 <HAL_NVIC_SetPriority>
 800081c:	4a05      	ldr	r2, [pc, #20]	; (8000834 <HAL_MspInit+0x9c>)
 800081e:	6853      	ldr	r3, [r2, #4]
 8000820:	f023 63e0 	bic.w	r3, r3, #117440512	; 0x7000000
 8000824:	f043 7300 	orr.w	r3, r3, #33554432	; 0x2000000
 8000828:	6053      	str	r3, [r2, #4]
 800082a:	b003      	add	sp, #12
 800082c:	f85d fb04 	ldr.w	pc, [sp], #4
 8000830:	40021000 	.word	0x40021000
 8000834:	40010000 	.word	0x40010000

08000838 <HAL_InitTick>:
 8000838:	b500      	push	{lr}
 800083a:	b089      	sub	sp, #36	; 0x24
 800083c:	2200      	movs	r2, #0
 800083e:	4601      	mov	r1, r0
 8000840:	201e      	movs	r0, #30
 8000842:	f000 fde9 	bl	8001418 <HAL_NVIC_SetPriority>
 8000846:	201e      	movs	r0, #30
 8000848:	f000 fe18 	bl	800147c <HAL_NVIC_EnableIRQ>
 800084c:	4b15      	ldr	r3, [pc, #84]	; (80008a4 <HAL_InitTick+0x6c>)
 800084e:	69da      	ldr	r2, [r3, #28]
 8000850:	f042 0204 	orr.w	r2, r2, #4
 8000854:	61da      	str	r2, [r3, #28]
 8000856:	69db      	ldr	r3, [r3, #28]
 8000858:	f003 0304 	and.w	r3, r3, #4
 800085c:	9301      	str	r3, [sp, #4]
 800085e:	9b01      	ldr	r3, [sp, #4]
 8000860:	a902      	add	r1, sp, #8
 8000862:	a803      	add	r0, sp, #12
 8000864:	f000 fcac 	bl	80011c0 <HAL_RCC_GetClockConfig>
 8000868:	f000 fc9a 	bl	80011a0 <HAL_RCC_GetPCLK1Freq>
 800086c:	0040      	lsls	r0, r0, #1
 800086e:	4b0e      	ldr	r3, [pc, #56]	; (80008a8 <HAL_InitTick+0x70>)
 8000870:	fba3 2300 	umull	r2, r3, r3, r0
 8000874:	0c9b      	lsrs	r3, r3, #18
 8000876:	3b01      	subs	r3, #1
 8000878:	480c      	ldr	r0, [pc, #48]	; (80008ac <HAL_InitTick+0x74>)
 800087a:	4a0d      	ldr	r2, [pc, #52]	; (80008b0 <HAL_InitTick+0x78>)
 800087c:	6002      	str	r2, [r0, #0]
 800087e:	f240 32e7 	movw	r2, #999	; 0x3e7
 8000882:	60c2      	str	r2, [r0, #12]
 8000884:	6043      	str	r3, [r0, #4]
 8000886:	2300      	movs	r3, #0
 8000888:	6103      	str	r3, [r0, #16]
 800088a:	6083      	str	r3, [r0, #8]
 800088c:	f000 f92e 	bl	8000aec <HAL_TIM_Base_Init>
 8000890:	b918      	cbnz	r0, 800089a <HAL_InitTick+0x62>
 8000892:	4806      	ldr	r0, [pc, #24]	; (80008ac <HAL_InitTick+0x74>)
 8000894:	f000 f810 	bl	80008b8 <HAL_TIM_Base_Start_IT>
 8000898:	e000      	b.n	800089c <HAL_InitTick+0x64>
 800089a:	2001      	movs	r0, #1
 800089c:	b009      	add	sp, #36	; 0x24
 800089e:	f85d fb04 	ldr.w	pc, [sp], #4
 80008a2:	bf00      	nop
 80008a4:	40021000 	.word	0x40021000
 80008a8:	431bde83 	.word	0x431bde83
 80008ac:	20000d88 	.word	0x20000d88
 80008b0:	40000800 	.word	0x40000800

080008b4 <HAL_TIM_Base_MspInit>:
 80008b4:	4770      	bx	lr
 80008b6:	bf00      	nop

080008b8 <HAL_TIM_Base_Start_IT>:
 80008b8:	6802      	ldr	r2, [r0, #0]
 80008ba:	68d3      	ldr	r3, [r2, #12]
 80008bc:	f043 0301 	orr.w	r3, r3, #1
 80008c0:	60d3      	str	r3, [r2, #12]
 80008c2:	6802      	ldr	r2, [r0, #0]
 80008c4:	6813      	ldr	r3, [r2, #0]
 80008c6:	f043 0301 	orr.w	r3, r3, #1
 80008ca:	6013      	str	r3, [r2, #0]
 80008cc:	2000      	movs	r0, #0
 80008ce:	4770      	bx	lr

080008d0 <HAL_TIM_OC_DelayElapsedCallback>:
 80008d0:	4770      	bx	lr
 80008d2:	bf00      	nop

080008d4 <HAL_TIM_IC_CaptureCallback>:
 80008d4:	4770      	bx	lr
 80008d6:	bf00      	nop

080008d8 <HAL_TIM_PWM_PulseFinishedCallback>:
 80008d8:	4770      	bx	lr
 80008da:	bf00      	nop

080008dc <HAL_TIM_TriggerCallback>:
 80008dc:	4770      	bx	lr
 80008de:	bf00      	nop

080008e0 <HAL_TIM_IRQHandler>:
 80008e0:	b510      	push	{r4, lr}
 80008e2:	4604      	mov	r4, r0
 80008e4:	6803      	ldr	r3, [r0, #0]
 80008e6:	691a      	ldr	r2, [r3, #16]
 80008e8:	f012 0f02 	tst.w	r2, #2
 80008ec:	d017      	beq.n	800091e <HAL_TIM_IRQHandler+0x3e>
 80008ee:	68da      	ldr	r2, [r3, #12]
 80008f0:	f012 0f02 	tst.w	r2, #2
 80008f4:	d013      	beq.n	800091e <HAL_TIM_IRQHandler+0x3e>
 80008f6:	f06f 0202 	mvn.w	r2, #2
 80008fa:	611a      	str	r2, [r3, #16]
 80008fc:	2301      	movs	r3, #1
 80008fe:	7703      	strb	r3, [r0, #28]
 8000900:	6803      	ldr	r3, [r0, #0]
 8000902:	699b      	ldr	r3, [r3, #24]
 8000904:	f013 0f03 	tst.w	r3, #3
 8000908:	d002      	beq.n	8000910 <HAL_TIM_IRQHandler+0x30>
 800090a:	f7ff ffe3 	bl	80008d4 <HAL_TIM_IC_CaptureCallback>
 800090e:	e004      	b.n	800091a <HAL_TIM_IRQHandler+0x3a>
 8000910:	f7ff ffde 	bl	80008d0 <HAL_TIM_OC_DelayElapsedCallback>
 8000914:	4620      	mov	r0, r4
 8000916:	f7ff ffdf 	bl	80008d8 <HAL_TIM_PWM_PulseFinishedCallback>
 800091a:	2300      	movs	r3, #0
 800091c:	7723      	strb	r3, [r4, #28]
 800091e:	6823      	ldr	r3, [r4, #0]
 8000920:	691a      	ldr	r2, [r3, #16]
 8000922:	f012 0f04 	tst.w	r2, #4
 8000926:	d019      	beq.n	800095c <HAL_TIM_IRQHandler+0x7c>
 8000928:	68da      	ldr	r2, [r3, #12]
 800092a:	f012 0f04 	tst.w	r2, #4
 800092e:	d015      	beq.n	800095c <HAL_TIM_IRQHandler+0x7c>
 8000930:	f06f 0204 	mvn.w	r2, #4
 8000934:	611a      	str	r2, [r3, #16]
 8000936:	2302      	movs	r3, #2
 8000938:	7723      	strb	r3, [r4, #28]
 800093a:	6823      	ldr	r3, [r4, #0]
 800093c:	699b      	ldr	r3, [r3, #24]
 800093e:	f413 7f40 	tst.w	r3, #768	; 0x300
 8000942:	d003      	beq.n	800094c <HAL_TIM_IRQHandler+0x6c>
 8000944:	4620      	mov	r0, r4
 8000946:	f7ff ffc5 	bl	80008d4 <HAL_TIM_IC_CaptureCallback>
 800094a:	e005      	b.n	8000958 <HAL_TIM_IRQHandler+0x78>
 800094c:	4620      	mov	r0, r4
 800094e:	f7ff ffbf 	bl	80008d0 <HAL_TIM_OC_DelayElapsedCallback>
 8000952:	4620      	mov	r0, r4
 8000954:	f7ff ffc0 	bl	80008d8 <HAL_TIM_PWM_PulseFinishedCallback>
 8000958:	2300      	movs	r3, #0
 800095a:	7723      	strb	r3, [r4, #28]
 800095c:	6823      	ldr	r3, [r4, #0]
 800095e:	691a      	ldr	r2, [r3, #16]
 8000960:	f012 0f08 	tst.w	r2, #8
 8000964:	d019      	beq.n	800099a <HAL_TIM_IRQHandler+0xba>
 8000966:	68da      	ldr	r2, [r3, #12]
 8000968:	f012 0f08 	tst.w	r2, #8
 800096c:	d015      	beq.n	800099a <HAL_TIM_IRQHandler+0xba>
 800096e:	f06f 0208 	mvn.w	r2, #8
 8000972:	611a      	str	r2, [r3, #16]
 8000974:	2304      	movs	r3, #4
 8000976:	7723      	strb	r3, [r4, #28]
 8000978:	6823      	ldr	r3, [r4, #0]
 800097a:	69db      	ldr	r3, [r3, #28]
 800097c:	f013 0f03 	tst.w	r3, #3
 8000980:	d003      	beq.n	800098a <HAL_TIM_IRQHandler+0xaa>
 8000982:	4620      	mov	r0, r4
 8000984:	f7ff ffa6 	bl	80008d4 <HAL_TIM_IC_CaptureCallback>
 8000988:	e005      	b.n	8000996 <HAL_TIM_IRQHandler+0xb6>
 800098a:	4620      	mov	r0, r4
 800098c:	f7ff ffa0 	bl	80008d0 <HAL_TIM_OC_DelayElapsedCallback>
 8000990:	4620      	mov	r0, r4
 8000992:	f7ff ffa1 	bl	80008d8 <HAL_TIM_PWM_PulseFinishedCallback>
 8000996:	2300      	movs	r3, #0
 8000998:	7723      	strb	r3, [r4, #28]
 800099a:	6823      	ldr	r3, [r4, #0]
 800099c:	691a      	ldr	r2, [r3, #16]
 800099e:	f012 0f10 	tst.w	r2, #16
 80009a2:	d019      	beq.n	80009d8 <HAL_TIM_IRQHandler+0xf8>
 80009a4:	68da      	ldr	r2, [r3, #12]
 80009a6:	f012 0f10 	tst.w	r2, #16
 80009aa:	d015      	beq.n	80009d8 <HAL_TIM_IRQHandler+0xf8>
 80009ac:	f06f 0210 	mvn.w	r2, #16
 80009b0:	611a      	str	r2, [r3, #16]
 80009b2:	2308      	movs	r3, #8
 80009b4:	7723      	strb	r3, [r4, #28]
 80009b6:	6823      	ldr	r3, [r4, #0]
 80009b8:	69db      	ldr	r3, [r3, #28]
 80009ba:	f413 7f40 	tst.w	r3, #768	; 0x300
 80009be:	d003      	beq.n	80009c8 <HAL_TIM_IRQHandler+0xe8>
 80009c0:	4620      	mov	r0, r4
 80009c2:	f7ff ff87 	bl	80008d4 <HAL_TIM_IC_CaptureCallback>
 80009c6:	e005      	b.n	80009d4 <HAL_TIM_IRQHandler+0xf4>
 80009c8:	4620      	mov	r0, r4
 80009ca:	f7ff ff81 	bl	80008d0 <HAL_TIM_OC_DelayElapsedCallback>
 80009ce:	4620      	mov	r0, r4
 80009d0:	f7ff ff82 	bl	80008d8 <HAL_TIM_PWM_PulseFinishedCallback>
 80009d4:	2300      	movs	r3, #0
 80009d6:	7723      	strb	r3, [r4, #28]
 80009d8:	6823      	ldr	r3, [r4, #0]
 80009da:	691a      	ldr	r2, [r3, #16]
 80009dc:	f012 0f01 	tst.w	r2, #1
 80009e0:	d009      	beq.n	80009f6 <HAL_TIM_IRQHandler+0x116>
 80009e2:	68da      	ldr	r2, [r3, #12]
 80009e4:	f012 0f01 	tst.w	r2, #1
 80009e8:	d005      	beq.n	80009f6 <HAL_TIM_IRQHandler+0x116>
 80009ea:	f06f 0201 	mvn.w	r2, #1
 80009ee:	611a      	str	r2, [r3, #16]
 80009f0:	4620      	mov	r0, r4
 80009f2:	f7ff fe11 	bl	8000618 <HAL_TIM_PeriodElapsedCallback>
 80009f6:	6823      	ldr	r3, [r4, #0]
 80009f8:	691a      	ldr	r2, [r3, #16]
 80009fa:	f012 0f80 	tst.w	r2, #128	; 0x80
 80009fe:	d009      	beq.n	8000a14 <HAL_TIM_IRQHandler+0x134>
 8000a00:	68da      	ldr	r2, [r3, #12]
 8000a02:	f012 0f80 	tst.w	r2, #128	; 0x80
 8000a06:	d005      	beq.n	8000a14 <HAL_TIM_IRQHandler+0x134>
 8000a08:	f06f 0280 	mvn.w	r2, #128	; 0x80
 8000a0c:	611a      	str	r2, [r3, #16]
 8000a0e:	4620      	mov	r0, r4
 8000a10:	f000 f88a 	bl	8000b28 <HAL_TIMEx_BreakCallback>
 8000a14:	6823      	ldr	r3, [r4, #0]
 8000a16:	691a      	ldr	r2, [r3, #16]
 8000a18:	f012 0f40 	tst.w	r2, #64	; 0x40
 8000a1c:	d009      	beq.n	8000a32 <HAL_TIM_IRQHandler+0x152>
 8000a1e:	68da      	ldr	r2, [r3, #12]
 8000a20:	f012 0f40 	tst.w	r2, #64	; 0x40
 8000a24:	d005      	beq.n	8000a32 <HAL_TIM_IRQHandler+0x152>
 8000a26:	f06f 0240 	mvn.w	r2, #64	; 0x40
 8000a2a:	611a      	str	r2, [r3, #16]
 8000a2c:	4620      	mov	r0, r4
 8000a2e:	f7ff ff55 	bl	80008dc <HAL_TIM_TriggerCallback>
 8000a32:	6823      	ldr	r3, [r4, #0]
 8000a34:	691a      	ldr	r2, [r3, #16]
 8000a36:	f012 0f20 	tst.w	r2, #32
 8000a3a:	d009      	beq.n	8000a50 <HAL_TIM_IRQHandler+0x170>
 8000a3c:	68da      	ldr	r2, [r3, #12]
 8000a3e:	f012 0f20 	tst.w	r2, #32
 8000a42:	d005      	beq.n	8000a50 <HAL_TIM_IRQHandler+0x170>
 8000a44:	f06f 0220 	mvn.w	r2, #32
 8000a48:	611a      	str	r2, [r3, #16]
 8000a4a:	4620      	mov	r0, r4
 8000a4c:	f000 f86a 	bl	8000b24 <HAL_TIMEx_CommutationCallback>
 8000a50:	bd10      	pop	{r4, pc}
 8000a52:	bf00      	nop

08000a54 <TIM_Base_SetConfig>:
 8000a54:	6803      	ldr	r3, [r0, #0]
 8000a56:	4a24      	ldr	r2, [pc, #144]	; (8000ae8 <TIM_Base_SetConfig+0x94>)
 8000a58:	4290      	cmp	r0, r2
 8000a5a:	d012      	beq.n	8000a82 <TIM_Base_SetConfig+0x2e>
 8000a5c:	f502 6200 	add.w	r2, r2, #2048	; 0x800
 8000a60:	4290      	cmp	r0, r2
 8000a62:	d00e      	beq.n	8000a82 <TIM_Base_SetConfig+0x2e>
 8000a64:	f1b0 4f80 	cmp.w	r0, #1073741824	; 0x40000000
 8000a68:	d00b      	beq.n	8000a82 <TIM_Base_SetConfig+0x2e>
 8000a6a:	f5a2 3298 	sub.w	r2, r2, #77824	; 0x13000
 8000a6e:	4290      	cmp	r0, r2
 8000a70:	d007      	beq.n	8000a82 <TIM_Base_SetConfig+0x2e>
 8000a72:	f502 6280 	add.w	r2, r2, #1024	; 0x400
 8000a76:	4290      	cmp	r0, r2
 8000a78:	d003      	beq.n	8000a82 <TIM_Base_SetConfig+0x2e>
 8000a7a:	f502 6280 	add.w	r2, r2, #1024	; 0x400
 8000a7e:	4290      	cmp	r0, r2
 8000a80:	d103      	bne.n	8000a8a <TIM_Base_SetConfig+0x36>
 8000a82:	f023 0370 	bic.w	r3, r3, #112	; 0x70
 8000a86:	684a      	ldr	r2, [r1, #4]
 8000a88:	4313      	orrs	r3, r2
 8000a8a:	4a17      	ldr	r2, [pc, #92]	; (8000ae8 <TIM_Base_SetConfig+0x94>)
 8000a8c:	4290      	cmp	r0, r2
 8000a8e:	d012      	beq.n	8000ab6 <TIM_Base_SetConfig+0x62>
 8000a90:	f502 6200 	add.w	r2, r2, #2048	; 0x800
 8000a94:	4290      	cmp	r0, r2
 8000a96:	d00e      	beq.n	8000ab6 <TIM_Base_SetConfig+0x62>
 8000a98:	f1b0 4f80 	cmp.w	r0, #1073741824	; 0x40000000
 8000a9c:	d00b      	beq.n	8000ab6 <TIM_Base_SetConfig+0x62>
 8000a9e:	f5a2 3298 	sub.w	r2, r2, #77824	; 0x13000
 8000aa2:	4290      	cmp	r0, r2
 8000aa4:	d007      	beq.n	8000ab6 <TIM_Base_SetConfig+0x62>
 8000aa6:	f502 6280 	add.w	r2, r2, #1024	; 0x400
 8000aaa:	4290      	cmp	r0, r2
 8000aac:	d003      	beq.n	8000ab6 <TIM_Base_SetConfig+0x62>
 8000aae:	f502 6280 	add.w	r2, r2, #1024	; 0x400
 8000ab2:	4290      	cmp	r0, r2
 8000ab4:	d103      	bne.n	8000abe <TIM_Base_SetConfig+0x6a>
 8000ab6:	f423 7340 	bic.w	r3, r3, #768	; 0x300
 8000aba:	68ca      	ldr	r2, [r1, #12]
 8000abc:	4313      	orrs	r3, r2
 8000abe:	f023 0380 	bic.w	r3, r3, #128	; 0x80
 8000ac2:	694a      	ldr	r2, [r1, #20]
 8000ac4:	4313      	orrs	r3, r2
 8000ac6:	6003      	str	r3, [r0, #0]
 8000ac8:	688b      	ldr	r3, [r1, #8]
 8000aca:	62c3      	str	r3, [r0, #44]	; 0x2c
 8000acc:	680b      	ldr	r3, [r1, #0]
 8000ace:	6283      	str	r3, [r0, #40]	; 0x28
 8000ad0:	4b05      	ldr	r3, [pc, #20]	; (8000ae8 <TIM_Base_SetConfig+0x94>)
 8000ad2:	4298      	cmp	r0, r3
 8000ad4:	d003      	beq.n	8000ade <TIM_Base_SetConfig+0x8a>
 8000ad6:	f503 6300 	add.w	r3, r3, #2048	; 0x800
 8000ada:	4298      	cmp	r0, r3
 8000adc:	d101      	bne.n	8000ae2 <TIM_Base_SetConfig+0x8e>
 8000ade:	690b      	ldr	r3, [r1, #16]
 8000ae0:	6303      	str	r3, [r0, #48]	; 0x30
 8000ae2:	2301      	movs	r3, #1
 8000ae4:	6143      	str	r3, [r0, #20]
 8000ae6:	4770      	bx	lr
 8000ae8:	40012c00 	.word	0x40012c00

08000aec <HAL_TIM_Base_Init>:
 8000aec:	b1b8      	cbz	r0, 8000b1e <HAL_TIM_Base_Init+0x32>
 8000aee:	b510      	push	{r4, lr}
 8000af0:	4604      	mov	r4, r0
 8000af2:	f890 303d 	ldrb.w	r3, [r0, #61]	; 0x3d
 8000af6:	f013 0fff 	tst.w	r3, #255	; 0xff
 8000afa:	d104      	bne.n	8000b06 <HAL_TIM_Base_Init+0x1a>
 8000afc:	2300      	movs	r3, #0
 8000afe:	f880 303c 	strb.w	r3, [r0, #60]	; 0x3c
 8000b02:	f7ff fed7 	bl	80008b4 <HAL_TIM_Base_MspInit>
 8000b06:	2302      	movs	r3, #2
 8000b08:	f884 303d 	strb.w	r3, [r4, #61]	; 0x3d
 8000b0c:	1d21      	adds	r1, r4, #4
 8000b0e:	6820      	ldr	r0, [r4, #0]
 8000b10:	f7ff ffa0 	bl	8000a54 <TIM_Base_SetConfig>
 8000b14:	2301      	movs	r3, #1
 8000b16:	f884 303d 	strb.w	r3, [r4, #61]	; 0x3d
 8000b1a:	2000      	movs	r0, #0
 8000b1c:	bd10      	pop	{r4, pc}
 8000b1e:	2001      	movs	r0, #1
 8000b20:	4770      	bx	lr
 8000b22:	bf00      	nop

08000b24 <HAL_TIMEx_CommutationCallback>:
 8000b24:	4770      	bx	lr
 8000b26:	bf00      	nop

08000b28 <HAL_TIMEx_BreakCallback>:
 8000b28:	4770      	bx	lr
 8000b2a:	bf00      	nop

08000b2c <HAL_Init>:
 8000b2c:	b508      	push	{r3, lr}
 8000b2e:	4a07      	ldr	r2, [pc, #28]	; (8000b4c <HAL_Init+0x20>)
 8000b30:	6813      	ldr	r3, [r2, #0]
 8000b32:	f043 0310 	orr.w	r3, r3, #16
 8000b36:	6013      	str	r3, [r2, #0]
 8000b38:	2003      	movs	r0, #3
 8000b3a:	f000 fc5b 	bl	80013f4 <HAL_NVIC_SetPriorityGrouping>
 8000b3e:	2000      	movs	r0, #0
 8000b40:	f7ff fe7a 	bl	8000838 <HAL_InitTick>
 8000b44:	f7ff fe28 	bl	8000798 <HAL_MspInit>
 8000b48:	2000      	movs	r0, #0
 8000b4a:	bd08      	pop	{r3, pc}
 8000b4c:	40022000 	.word	0x40022000

08000b50 <HAL_IncTick>:
 8000b50:	4a03      	ldr	r2, [pc, #12]	; (8000b60 <HAL_IncTick+0x10>)
 8000b52:	6813      	ldr	r3, [r2, #0]
 8000b54:	4903      	ldr	r1, [pc, #12]	; (8000b64 <HAL_IncTick+0x14>)
 8000b56:	7809      	ldrb	r1, [r1, #0]
 8000b58:	440b      	add	r3, r1
 8000b5a:	6013      	str	r3, [r2, #0]
 8000b5c:	4770      	bx	lr
 8000b5e:	bf00      	nop
 8000b60:	20000dc8 	.word	0x20000dc8
 8000b64:	20000000 	.word	0x20000000

08000b68 <HAL_GetTick>:
 8000b68:	4b01      	ldr	r3, [pc, #4]	; (8000b70 <HAL_GetTick+0x8>)
 8000b6a:	6818      	ldr	r0, [r3, #0]
 8000b6c:	4770      	bx	lr
 8000b6e:	bf00      	nop
 8000b70:	20000dc8 	.word	0x20000dc8

08000b74 <RCC_Delay>:
 8000b74:	b082      	sub	sp, #8
 8000b76:	4b08      	ldr	r3, [pc, #32]	; (8000b98 <RCC_Delay+0x24>)
 8000b78:	681b      	ldr	r3, [r3, #0]
 8000b7a:	4a08      	ldr	r2, [pc, #32]	; (8000b9c <RCC_Delay+0x28>)
 8000b7c:	fba2 2303 	umull	r2, r3, r2, r3
 8000b80:	0a5b      	lsrs	r3, r3, #9
 8000b82:	fb00 f003 	mul.w	r0, r0, r3
 8000b86:	9001      	str	r0, [sp, #4]
 8000b88:	bf00      	nop
 8000b8a:	9b01      	ldr	r3, [sp, #4]
 8000b8c:	1e5a      	subs	r2, r3, #1
 8000b8e:	9201      	str	r2, [sp, #4]
 8000b90:	2b00      	cmp	r3, #0
 8000b92:	d1f9      	bne.n	8000b88 <RCC_Delay+0x14>
 8000b94:	b002      	add	sp, #8
 8000b96:	4770      	bx	lr
 8000b98:	20000004 	.word	0x20000004
 8000b9c:	10624dd3 	.word	0x10624dd3

08000ba0 <HAL_RCC_OscConfig>:
 8000ba0:	b570      	push	{r4, r5, r6, lr}
 8000ba2:	b082      	sub	sp, #8
 8000ba4:	4604      	mov	r4, r0
 8000ba6:	6803      	ldr	r3, [r0, #0]
 8000ba8:	f013 0f01 	tst.w	r3, #1
 8000bac:	d06b      	beq.n	8000c86 <HAL_RCC_OscConfig+0xe6>
 8000bae:	4ba8      	ldr	r3, [pc, #672]	; (8000e50 <HAL_RCC_OscConfig+0x2b0>)
 8000bb0:	685b      	ldr	r3, [r3, #4]
 8000bb2:	f003 030c 	and.w	r3, r3, #12
 8000bb6:	2b04      	cmp	r3, #4
 8000bb8:	d00a      	beq.n	8000bd0 <HAL_RCC_OscConfig+0x30>
 8000bba:	4ba5      	ldr	r3, [pc, #660]	; (8000e50 <HAL_RCC_OscConfig+0x2b0>)
 8000bbc:	685b      	ldr	r3, [r3, #4]
 8000bbe:	f003 030c 	and.w	r3, r3, #12
 8000bc2:	2b08      	cmp	r3, #8
 8000bc4:	d10d      	bne.n	8000be2 <HAL_RCC_OscConfig+0x42>
 8000bc6:	4ba2      	ldr	r3, [pc, #648]	; (8000e50 <HAL_RCC_OscConfig+0x2b0>)
 8000bc8:	685b      	ldr	r3, [r3, #4]
 8000bca:	f413 3f80 	tst.w	r3, #65536	; 0x10000
 8000bce:	d008      	beq.n	8000be2 <HAL_RCC_OscConfig+0x42>
 8000bd0:	4b9f      	ldr	r3, [pc, #636]	; (8000e50 <HAL_RCC_OscConfig+0x2b0>)
 8000bd2:	681b      	ldr	r3, [r3, #0]
 8000bd4:	f413 3f00 	tst.w	r3, #131072	; 0x20000
 8000bd8:	d055      	beq.n	8000c86 <HAL_RCC_OscConfig+0xe6>
 8000bda:	6863      	ldr	r3, [r4, #4]
 8000bdc:	2b00      	cmp	r3, #0
 8000bde:	d152      	bne.n	8000c86 <HAL_RCC_OscConfig+0xe6>
 8000be0:	e1b8      	b.n	8000f54 <HAL_RCC_OscConfig+0x3b4>
 8000be2:	6863      	ldr	r3, [r4, #4]
 8000be4:	f5b3 3f80 	cmp.w	r3, #65536	; 0x10000
 8000be8:	d105      	bne.n	8000bf6 <HAL_RCC_OscConfig+0x56>
 8000bea:	4a99      	ldr	r2, [pc, #612]	; (8000e50 <HAL_RCC_OscConfig+0x2b0>)
 8000bec:	6813      	ldr	r3, [r2, #0]
 8000bee:	f443 3380 	orr.w	r3, r3, #65536	; 0x10000
 8000bf2:	6013      	str	r3, [r2, #0]
 8000bf4:	e026      	b.n	8000c44 <HAL_RCC_OscConfig+0xa4>
 8000bf6:	b963      	cbnz	r3, 8000c12 <HAL_RCC_OscConfig+0x72>
 8000bf8:	f103 4380 	add.w	r3, r3, #1073741824	; 0x40000000
 8000bfc:	f503 3304 	add.w	r3, r3, #135168	; 0x21000
 8000c00:	681a      	ldr	r2, [r3, #0]
 8000c02:	f422 3280 	bic.w	r2, r2, #65536	; 0x10000
 8000c06:	601a      	str	r2, [r3, #0]
 8000c08:	681a      	ldr	r2, [r3, #0]
 8000c0a:	f422 2280 	bic.w	r2, r2, #262144	; 0x40000
 8000c0e:	601a      	str	r2, [r3, #0]
 8000c10:	e018      	b.n	8000c44 <HAL_RCC_OscConfig+0xa4>
 8000c12:	f5b3 2fa0 	cmp.w	r3, #327680	; 0x50000
 8000c16:	d10c      	bne.n	8000c32 <HAL_RCC_OscConfig+0x92>
 8000c18:	f103 4380 	add.w	r3, r3, #1073741824	; 0x40000000
 8000c1c:	f5a3 333c 	sub.w	r3, r3, #192512	; 0x2f000
 8000c20:	681a      	ldr	r2, [r3, #0]
 8000c22:	f442 2280 	orr.w	r2, r2, #262144	; 0x40000
 8000c26:	601a      	str	r2, [r3, #0]
 8000c28:	681a      	ldr	r2, [r3, #0]
 8000c2a:	f442 3280 	orr.w	r2, r2, #65536	; 0x10000
 8000c2e:	601a      	str	r2, [r3, #0]
 8000c30:	e008      	b.n	8000c44 <HAL_RCC_OscConfig+0xa4>
 8000c32:	4b87      	ldr	r3, [pc, #540]	; (8000e50 <HAL_RCC_OscConfig+0x2b0>)
 8000c34:	681a      	ldr	r2, [r3, #0]
 8000c36:	f422 3280 	bic.w	r2, r2, #65536	; 0x10000
 8000c3a:	601a      	str	r2, [r3, #0]
 8000c3c:	681a      	ldr	r2, [r3, #0]
 8000c3e:	f422 2280 	bic.w	r2, r2, #262144	; 0x40000
 8000c42:	601a      	str	r2, [r3, #0]
 8000c44:	6863      	ldr	r3, [r4, #4]
 8000c46:	b17b      	cbz	r3, 8000c68 <HAL_RCC_OscConfig+0xc8>
 8000c48:	f7ff ff8e 	bl	8000b68 <HAL_GetTick>
 8000c4c:	4605      	mov	r5, r0
 8000c4e:	e005      	b.n	8000c5c <HAL_RCC_OscConfig+0xbc>
 8000c50:	f7ff ff8a 	bl	8000b68 <HAL_GetTick>
 8000c54:	1b40      	subs	r0, r0, r5
 8000c56:	2864      	cmp	r0, #100	; 0x64
 8000c58:	f200 817e 	bhi.w	8000f58 <HAL_RCC_OscConfig+0x3b8>
 8000c5c:	4b7c      	ldr	r3, [pc, #496]	; (8000e50 <HAL_RCC_OscConfig+0x2b0>)
 8000c5e:	681b      	ldr	r3, [r3, #0]
 8000c60:	f413 3f00 	tst.w	r3, #131072	; 0x20000
 8000c64:	d0f4      	beq.n	8000c50 <HAL_RCC_OscConfig+0xb0>
 8000c66:	e00e      	b.n	8000c86 <HAL_RCC_OscConfig+0xe6>
 8000c68:	f7ff ff7e 	bl	8000b68 <HAL_GetTick>
 8000c6c:	4605      	mov	r5, r0
 8000c6e:	e005      	b.n	8000c7c <HAL_RCC_OscConfig+0xdc>
 8000c70:	f7ff ff7a 	bl	8000b68 <HAL_GetTick>
 8000c74:	1b40      	subs	r0, r0, r5
 8000c76:	2864      	cmp	r0, #100	; 0x64
 8000c78:	f200 8170 	bhi.w	8000f5c <HAL_RCC_OscConfig+0x3bc>
 8000c7c:	4b74      	ldr	r3, [pc, #464]	; (8000e50 <HAL_RCC_OscConfig+0x2b0>)
 8000c7e:	681b      	ldr	r3, [r3, #0]
 8000c80:	f413 3f00 	tst.w	r3, #131072	; 0x20000
 8000c84:	d1f4      	bne.n	8000c70 <HAL_RCC_OscConfig+0xd0>
 8000c86:	6823      	ldr	r3, [r4, #0]
 8000c88:	f013 0f02 	tst.w	r3, #2
 8000c8c:	d050      	beq.n	8000d30 <HAL_RCC_OscConfig+0x190>
 8000c8e:	4b70      	ldr	r3, [pc, #448]	; (8000e50 <HAL_RCC_OscConfig+0x2b0>)
 8000c90:	685b      	ldr	r3, [r3, #4]
 8000c92:	f013 0f0c 	tst.w	r3, #12
 8000c96:	d00a      	beq.n	8000cae <HAL_RCC_OscConfig+0x10e>
 8000c98:	4b6d      	ldr	r3, [pc, #436]	; (8000e50 <HAL_RCC_OscConfig+0x2b0>)
 8000c9a:	685b      	ldr	r3, [r3, #4]
 8000c9c:	f003 030c 	and.w	r3, r3, #12
 8000ca0:	2b08      	cmp	r3, #8
 8000ca2:	d116      	bne.n	8000cd2 <HAL_RCC_OscConfig+0x132>
 8000ca4:	4b6a      	ldr	r3, [pc, #424]	; (8000e50 <HAL_RCC_OscConfig+0x2b0>)
 8000ca6:	685b      	ldr	r3, [r3, #4]
 8000ca8:	f413 3f80 	tst.w	r3, #65536	; 0x10000
 8000cac:	d111      	bne.n	8000cd2 <HAL_RCC_OscConfig+0x132>
 8000cae:	4b68      	ldr	r3, [pc, #416]	; (8000e50 <HAL_RCC_OscConfig+0x2b0>)
 8000cb0:	681b      	ldr	r3, [r3, #0]
 8000cb2:	f013 0f02 	tst.w	r3, #2
 8000cb6:	d003      	beq.n	8000cc0 <HAL_RCC_OscConfig+0x120>
 8000cb8:	6923      	ldr	r3, [r4, #16]
 8000cba:	2b01      	cmp	r3, #1
 8000cbc:	f040 8150 	bne.w	8000f60 <HAL_RCC_OscConfig+0x3c0>
 8000cc0:	4a63      	ldr	r2, [pc, #396]	; (8000e50 <HAL_RCC_OscConfig+0x2b0>)
 8000cc2:	6813      	ldr	r3, [r2, #0]
 8000cc4:	f023 03f8 	bic.w	r3, r3, #248	; 0xf8
 8000cc8:	6961      	ldr	r1, [r4, #20]
 8000cca:	ea43 03c1 	orr.w	r3, r3, r1, lsl #3
 8000cce:	6013      	str	r3, [r2, #0]
 8000cd0:	e02e      	b.n	8000d30 <HAL_RCC_OscConfig+0x190>
 8000cd2:	6923      	ldr	r3, [r4, #16]
 8000cd4:	b1d3      	cbz	r3, 8000d0c <HAL_RCC_OscConfig+0x16c>
 8000cd6:	2201      	movs	r2, #1
 8000cd8:	4b5e      	ldr	r3, [pc, #376]	; (8000e54 <HAL_RCC_OscConfig+0x2b4>)
 8000cda:	601a      	str	r2, [r3, #0]
 8000cdc:	f7ff ff44 	bl	8000b68 <HAL_GetTick>
 8000ce0:	4605      	mov	r5, r0
 8000ce2:	e005      	b.n	8000cf0 <HAL_RCC_OscConfig+0x150>
 8000ce4:	f7ff ff40 	bl	8000b68 <HAL_GetTick>
 8000ce8:	1b40      	subs	r0, r0, r5
 8000cea:	2802      	cmp	r0, #2
 8000cec:	f200 813a 	bhi.w	8000f64 <HAL_RCC_OscConfig+0x3c4>
 8000cf0:	4b57      	ldr	r3, [pc, #348]	; (8000e50 <HAL_RCC_OscConfig+0x2b0>)
 8000cf2:	681b      	ldr	r3, [r3, #0]
 8000cf4:	f013 0f02 	tst.w	r3, #2
 8000cf8:	d0f4      	beq.n	8000ce4 <HAL_RCC_OscConfig+0x144>
 8000cfa:	4a55      	ldr	r2, [pc, #340]	; (8000e50 <HAL_RCC_OscConfig+0x2b0>)
 8000cfc:	6813      	ldr	r3, [r2, #0]
 8000cfe:	f023 03f8 	bic.w	r3, r3, #248	; 0xf8
 8000d02:	6961      	ldr	r1, [r4, #20]
 8000d04:	ea43 03c1 	orr.w	r3, r3, r1, lsl #3
 8000d08:	6013      	str	r3, [r2, #0]
 8000d0a:	e011      	b.n	8000d30 <HAL_RCC_OscConfig+0x190>
 8000d0c:	2200      	movs	r2, #0
 8000d0e:	4b51      	ldr	r3, [pc, #324]	; (8000e54 <HAL_RCC_OscConfig+0x2b4>)
 8000d10:	601a      	str	r2, [r3, #0]
 8000d12:	f7ff ff29 	bl	8000b68 <HAL_GetTick>
 8000d16:	4605      	mov	r5, r0
 8000d18:	e005      	b.n	8000d26 <HAL_RCC_OscConfig+0x186>
 8000d1a:	f7ff ff25 	bl	8000b68 <HAL_GetTick>
 8000d1e:	1b40      	subs	r0, r0, r5
 8000d20:	2802      	cmp	r0, #2
 8000d22:	f200 8121 	bhi.w	8000f68 <HAL_RCC_OscConfig+0x3c8>
 8000d26:	4b4a      	ldr	r3, [pc, #296]	; (8000e50 <HAL_RCC_OscConfig+0x2b0>)
 8000d28:	681b      	ldr	r3, [r3, #0]
 8000d2a:	f013 0f02 	tst.w	r3, #2
 8000d2e:	d1f4      	bne.n	8000d1a <HAL_RCC_OscConfig+0x17a>
 8000d30:	6823      	ldr	r3, [r4, #0]
 8000d32:	f013 0f08 	tst.w	r3, #8
 8000d36:	d029      	beq.n	8000d8c <HAL_RCC_OscConfig+0x1ec>
 8000d38:	69a3      	ldr	r3, [r4, #24]
 8000d3a:	b1ab      	cbz	r3, 8000d68 <HAL_RCC_OscConfig+0x1c8>
 8000d3c:	2201      	movs	r2, #1
 8000d3e:	4b46      	ldr	r3, [pc, #280]	; (8000e58 <HAL_RCC_OscConfig+0x2b8>)
 8000d40:	601a      	str	r2, [r3, #0]
 8000d42:	f7ff ff11 	bl	8000b68 <HAL_GetTick>
 8000d46:	4605      	mov	r5, r0
 8000d48:	e005      	b.n	8000d56 <HAL_RCC_OscConfig+0x1b6>
 8000d4a:	f7ff ff0d 	bl	8000b68 <HAL_GetTick>
 8000d4e:	1b40      	subs	r0, r0, r5
 8000d50:	2802      	cmp	r0, #2
 8000d52:	f200 810b 	bhi.w	8000f6c <HAL_RCC_OscConfig+0x3cc>
 8000d56:	4b3e      	ldr	r3, [pc, #248]	; (8000e50 <HAL_RCC_OscConfig+0x2b0>)
 8000d58:	6a5b      	ldr	r3, [r3, #36]	; 0x24
 8000d5a:	f013 0f02 	tst.w	r3, #2
 8000d5e:	d0f4      	beq.n	8000d4a <HAL_RCC_OscConfig+0x1aa>
 8000d60:	2001      	movs	r0, #1
 8000d62:	f7ff ff07 	bl	8000b74 <RCC_Delay>
 8000d66:	e011      	b.n	8000d8c <HAL_RCC_OscConfig+0x1ec>
 8000d68:	2200      	movs	r2, #0
 8000d6a:	4b3b      	ldr	r3, [pc, #236]	; (8000e58 <HAL_RCC_OscConfig+0x2b8>)
 8000d6c:	601a      	str	r2, [r3, #0]
 8000d6e:	f7ff fefb 	bl	8000b68 <HAL_GetTick>
 8000d72:	4605      	mov	r5, r0
 8000d74:	e005      	b.n	8000d82 <HAL_RCC_OscConfig+0x1e2>
 8000d76:	f7ff fef7 	bl	8000b68 <HAL_GetTick>
 8000d7a:	1b40      	subs	r0, r0, r5
 8000d7c:	2802      	cmp	r0, #2
 8000d7e:	f200 80f7 	bhi.w	8000f70 <HAL_RCC_OscConfig+0x3d0>
 8000d82:	4b33      	ldr	r3, [pc, #204]	; (8000e50 <HAL_RCC_OscConfig+0x2b0>)
 8000d84:	6a5b      	ldr	r3, [r3, #36]	; 0x24
 8000d86:	f013 0f02 	tst.w	r3, #2
 8000d8a:	d1f4      	bne.n	8000d76 <HAL_RCC_OscConfig+0x1d6>
 8000d8c:	6823      	ldr	r3, [r4, #0]
 8000d8e:	f013 0f04 	tst.w	r3, #4
 8000d92:	f000 8089 	beq.w	8000ea8 <HAL_RCC_OscConfig+0x308>
 8000d96:	4b2e      	ldr	r3, [pc, #184]	; (8000e50 <HAL_RCC_OscConfig+0x2b0>)
 8000d98:	69db      	ldr	r3, [r3, #28]
 8000d9a:	f013 5f80 	tst.w	r3, #268435456	; 0x10000000
 8000d9e:	d10b      	bne.n	8000db8 <HAL_RCC_OscConfig+0x218>
 8000da0:	4b2b      	ldr	r3, [pc, #172]	; (8000e50 <HAL_RCC_OscConfig+0x2b0>)
 8000da2:	69da      	ldr	r2, [r3, #28]
 8000da4:	f042 5280 	orr.w	r2, r2, #268435456	; 0x10000000
 8000da8:	61da      	str	r2, [r3, #28]
 8000daa:	69db      	ldr	r3, [r3, #28]
 8000dac:	f003 5380 	and.w	r3, r3, #268435456	; 0x10000000
 8000db0:	9301      	str	r3, [sp, #4]
 8000db2:	9b01      	ldr	r3, [sp, #4]
 8000db4:	2501      	movs	r5, #1
 8000db6:	e000      	b.n	8000dba <HAL_RCC_OscConfig+0x21a>
 8000db8:	2500      	movs	r5, #0
 8000dba:	4b28      	ldr	r3, [pc, #160]	; (8000e5c <HAL_RCC_OscConfig+0x2bc>)
 8000dbc:	681b      	ldr	r3, [r3, #0]
 8000dbe:	f413 7f80 	tst.w	r3, #256	; 0x100
 8000dc2:	d113      	bne.n	8000dec <HAL_RCC_OscConfig+0x24c>
 8000dc4:	4a25      	ldr	r2, [pc, #148]	; (8000e5c <HAL_RCC_OscConfig+0x2bc>)
 8000dc6:	6813      	ldr	r3, [r2, #0]
 8000dc8:	f443 7380 	orr.w	r3, r3, #256	; 0x100
 8000dcc:	6013      	str	r3, [r2, #0]
 8000dce:	f7ff fecb 	bl	8000b68 <HAL_GetTick>
 8000dd2:	4606      	mov	r6, r0
 8000dd4:	e005      	b.n	8000de2 <HAL_RCC_OscConfig+0x242>
 8000dd6:	f7ff fec7 	bl	8000b68 <HAL_GetTick>
 8000dda:	1b80      	subs	r0, r0, r6
 8000ddc:	2864      	cmp	r0, #100	; 0x64
 8000dde:	f200 80c9 	bhi.w	8000f74 <HAL_RCC_OscConfig+0x3d4>
 8000de2:	4b1e      	ldr	r3, [pc, #120]	; (8000e5c <HAL_RCC_OscConfig+0x2bc>)
 8000de4:	681b      	ldr	r3, [r3, #0]
 8000de6:	f413 7f80 	tst.w	r3, #256	; 0x100
 8000dea:	d0f4      	beq.n	8000dd6 <HAL_RCC_OscConfig+0x236>
 8000dec:	68e3      	ldr	r3, [r4, #12]
 8000dee:	2b01      	cmp	r3, #1
 8000df0:	d105      	bne.n	8000dfe <HAL_RCC_OscConfig+0x25e>
 8000df2:	4a17      	ldr	r2, [pc, #92]	; (8000e50 <HAL_RCC_OscConfig+0x2b0>)
 8000df4:	6a13      	ldr	r3, [r2, #32]
 8000df6:	f043 0301 	orr.w	r3, r3, #1
 8000dfa:	6213      	str	r3, [r2, #32]
 8000dfc:	e022      	b.n	8000e44 <HAL_RCC_OscConfig+0x2a4>
 8000dfe:	b963      	cbnz	r3, 8000e1a <HAL_RCC_OscConfig+0x27a>
 8000e00:	f103 4380 	add.w	r3, r3, #1073741824	; 0x40000000
 8000e04:	f503 3304 	add.w	r3, r3, #135168	; 0x21000
 8000e08:	6a1a      	ldr	r2, [r3, #32]
 8000e0a:	f022 0201 	bic.w	r2, r2, #1
 8000e0e:	621a      	str	r2, [r3, #32]
 8000e10:	6a1a      	ldr	r2, [r3, #32]
 8000e12:	f022 0204 	bic.w	r2, r2, #4
 8000e16:	621a      	str	r2, [r3, #32]
 8000e18:	e014      	b.n	8000e44 <HAL_RCC_OscConfig+0x2a4>
 8000e1a:	2b05      	cmp	r3, #5
 8000e1c:	d109      	bne.n	8000e32 <HAL_RCC_OscConfig+0x292>
 8000e1e:	4b0c      	ldr	r3, [pc, #48]	; (8000e50 <HAL_RCC_OscConfig+0x2b0>)
 8000e20:	6a1a      	ldr	r2, [r3, #32]
 8000e22:	f042 0204 	orr.w	r2, r2, #4
 8000e26:	621a      	str	r2, [r3, #32]
 8000e28:	6a1a      	ldr	r2, [r3, #32]
 8000e2a:	f042 0201 	orr.w	r2, r2, #1
 8000e2e:	621a      	str	r2, [r3, #32]
 8000e30:	e008      	b.n	8000e44 <HAL_RCC_OscConfig+0x2a4>
 8000e32:	4b07      	ldr	r3, [pc, #28]	; (8000e50 <HAL_RCC_OscConfig+0x2b0>)
 8000e34:	6a1a      	ldr	r2, [r3, #32]
 8000e36:	f022 0201 	bic.w	r2, r2, #1
 8000e3a:	621a      	str	r2, [r3, #32]
 8000e3c:	6a1a      	ldr	r2, [r3, #32]
 8000e3e:	f022 0204 	bic.w	r2, r2, #4
 8000e42:	621a      	str	r2, [r3, #32]
 8000e44:	68e3      	ldr	r3, [r4, #12]
 8000e46:	b1cb      	cbz	r3, 8000e7c <HAL_RCC_OscConfig+0x2dc>
 8000e48:	f7ff fe8e 	bl	8000b68 <HAL_GetTick>
 8000e4c:	4606      	mov	r6, r0
 8000e4e:	e00f      	b.n	8000e70 <HAL_RCC_OscConfig+0x2d0>
 8000e50:	40021000 	.word	0x40021000
 8000e54:	42420000 	.word	0x42420000
 8000e58:	42420480 	.word	0x42420480
 8000e5c:	40007000 	.word	0x40007000
 8000e60:	f7ff fe82 	bl	8000b68 <HAL_GetTick>
 8000e64:	1b80      	subs	r0, r0, r6
 8000e66:	f241 3388 	movw	r3, #5000	; 0x1388
 8000e6a:	4298      	cmp	r0, r3
 8000e6c:	f200 8084 	bhi.w	8000f78 <HAL_RCC_OscConfig+0x3d8>
 8000e70:	4b49      	ldr	r3, [pc, #292]	; (8000f98 <HAL_RCC_OscConfig+0x3f8>)
 8000e72:	6a1b      	ldr	r3, [r3, #32]
 8000e74:	f013 0f02 	tst.w	r3, #2
 8000e78:	d0f2      	beq.n	8000e60 <HAL_RCC_OscConfig+0x2c0>
 8000e7a:	e00f      	b.n	8000e9c <HAL_RCC_OscConfig+0x2fc>
 8000e7c:	f7ff fe74 	bl	8000b68 <HAL_GetTick>
 8000e80:	4606      	mov	r6, r0
 8000e82:	e006      	b.n	8000e92 <HAL_RCC_OscConfig+0x2f2>
 8000e84:	f7ff fe70 	bl	8000b68 <HAL_GetTick>
 8000e88:	1b80      	subs	r0, r0, r6
 8000e8a:	f241 3388 	movw	r3, #5000	; 0x1388
 8000e8e:	4298      	cmp	r0, r3
 8000e90:	d874      	bhi.n	8000f7c <HAL_RCC_OscConfig+0x3dc>
 8000e92:	4b41      	ldr	r3, [pc, #260]	; (8000f98 <HAL_RCC_OscConfig+0x3f8>)
 8000e94:	6a1b      	ldr	r3, [r3, #32]
 8000e96:	f013 0f02 	tst.w	r3, #2
 8000e9a:	d1f3      	bne.n	8000e84 <HAL_RCC_OscConfig+0x2e4>
 8000e9c:	b125      	cbz	r5, 8000ea8 <HAL_RCC_OscConfig+0x308>
 8000e9e:	4a3e      	ldr	r2, [pc, #248]	; (8000f98 <HAL_RCC_OscConfig+0x3f8>)
 8000ea0:	69d3      	ldr	r3, [r2, #28]
 8000ea2:	f023 5380 	bic.w	r3, r3, #268435456	; 0x10000000
 8000ea6:	61d3      	str	r3, [r2, #28]
 8000ea8:	69e3      	ldr	r3, [r4, #28]
 8000eaa:	2b00      	cmp	r3, #0
 8000eac:	d068      	beq.n	8000f80 <HAL_RCC_OscConfig+0x3e0>
 8000eae:	4a3a      	ldr	r2, [pc, #232]	; (8000f98 <HAL_RCC_OscConfig+0x3f8>)
 8000eb0:	6852      	ldr	r2, [r2, #4]
 8000eb2:	f002 020c 	and.w	r2, r2, #12
 8000eb6:	2a08      	cmp	r2, #8
 8000eb8:	d064      	beq.n	8000f84 <HAL_RCC_OscConfig+0x3e4>
 8000eba:	2b02      	cmp	r3, #2
 8000ebc:	d137      	bne.n	8000f2e <HAL_RCC_OscConfig+0x38e>
 8000ebe:	2200      	movs	r2, #0
 8000ec0:	4b36      	ldr	r3, [pc, #216]	; (8000f9c <HAL_RCC_OscConfig+0x3fc>)
 8000ec2:	601a      	str	r2, [r3, #0]
 8000ec4:	f7ff fe50 	bl	8000b68 <HAL_GetTick>
 8000ec8:	4605      	mov	r5, r0
 8000eca:	e004      	b.n	8000ed6 <HAL_RCC_OscConfig+0x336>
 8000ecc:	f7ff fe4c 	bl	8000b68 <HAL_GetTick>
 8000ed0:	1b40      	subs	r0, r0, r5
 8000ed2:	2802      	cmp	r0, #2
 8000ed4:	d858      	bhi.n	8000f88 <HAL_RCC_OscConfig+0x3e8>
 8000ed6:	4b30      	ldr	r3, [pc, #192]	; (8000f98 <HAL_RCC_OscConfig+0x3f8>)
 8000ed8:	681b      	ldr	r3, [r3, #0]
 8000eda:	f013 7f00 	tst.w	r3, #33554432	; 0x2000000
 8000ede:	d1f5      	bne.n	8000ecc <HAL_RCC_OscConfig+0x32c>
 8000ee0:	6a23      	ldr	r3, [r4, #32]
 8000ee2:	f5b3 3f80 	cmp.w	r3, #65536	; 0x10000
 8000ee6:	d106      	bne.n	8000ef6 <HAL_RCC_OscConfig+0x356>
 8000ee8:	492b      	ldr	r1, [pc, #172]	; (8000f98 <HAL_RCC_OscConfig+0x3f8>)
 8000eea:	684b      	ldr	r3, [r1, #4]
 8000eec:	f423 3200 	bic.w	r2, r3, #131072	; 0x20000
 8000ef0:	68a3      	ldr	r3, [r4, #8]
 8000ef2:	4313      	orrs	r3, r2
 8000ef4:	604b      	str	r3, [r1, #4]
 8000ef6:	4828      	ldr	r0, [pc, #160]	; (8000f98 <HAL_RCC_OscConfig+0x3f8>)
 8000ef8:	6843      	ldr	r3, [r0, #4]
 8000efa:	f423 1174 	bic.w	r1, r3, #3997696	; 0x3d0000
 8000efe:	6a23      	ldr	r3, [r4, #32]
 8000f00:	6a62      	ldr	r2, [r4, #36]	; 0x24
 8000f02:	4313      	orrs	r3, r2
 8000f04:	430b      	orrs	r3, r1
 8000f06:	6043      	str	r3, [r0, #4]
 8000f08:	2201      	movs	r2, #1
 8000f0a:	4b24      	ldr	r3, [pc, #144]	; (8000f9c <HAL_RCC_OscConfig+0x3fc>)
 8000f0c:	601a      	str	r2, [r3, #0]
 8000f0e:	f7ff fe2b 	bl	8000b68 <HAL_GetTick>
 8000f12:	4604      	mov	r4, r0
 8000f14:	e004      	b.n	8000f20 <HAL_RCC_OscConfig+0x380>
 8000f16:	f7ff fe27 	bl	8000b68 <HAL_GetTick>
 8000f1a:	1b00      	subs	r0, r0, r4
 8000f1c:	2802      	cmp	r0, #2
 8000f1e:	d835      	bhi.n	8000f8c <HAL_RCC_OscConfig+0x3ec>
 8000f20:	4b1d      	ldr	r3, [pc, #116]	; (8000f98 <HAL_RCC_OscConfig+0x3f8>)
 8000f22:	681b      	ldr	r3, [r3, #0]
 8000f24:	f013 7f00 	tst.w	r3, #33554432	; 0x2000000
 8000f28:	d0f5      	beq.n	8000f16 <HAL_RCC_OscConfig+0x376>
 8000f2a:	2000      	movs	r0, #0
 8000f2c:	e031      	b.n	8000f92 <HAL_RCC_OscConfig+0x3f2>
 8000f2e:	2200      	movs	r2, #0
 8000f30:	4b1a      	ldr	r3, [pc, #104]	; (8000f9c <HAL_RCC_OscConfig+0x3fc>)
 8000f32:	601a      	str	r2, [r3, #0]
 8000f34:	f7ff fe18 	bl	8000b68 <HAL_GetTick>
 8000f38:	4604      	mov	r4, r0
 8000f3a:	e004      	b.n	8000f46 <HAL_RCC_OscConfig+0x3a6>
 8000f3c:	f7ff fe14 	bl	8000b68 <HAL_GetTick>
 8000f40:	1b00      	subs	r0, r0, r4
 8000f42:	2802      	cmp	r0, #2
 8000f44:	d824      	bhi.n	8000f90 <HAL_RCC_OscConfig+0x3f0>
 8000f46:	4b14      	ldr	r3, [pc, #80]	; (8000f98 <HAL_RCC_OscConfig+0x3f8>)
 8000f48:	681b      	ldr	r3, [r3, #0]
 8000f4a:	f013 7f00 	tst.w	r3, #33554432	; 0x2000000
 8000f4e:	d1f5      	bne.n	8000f3c <HAL_RCC_OscConfig+0x39c>
 8000f50:	2000      	movs	r0, #0
 8000f52:	e01e      	b.n	8000f92 <HAL_RCC_OscConfig+0x3f2>
 8000f54:	2001      	movs	r0, #1
 8000f56:	e01c      	b.n	8000f92 <HAL_RCC_OscConfig+0x3f2>
 8000f58:	2003      	movs	r0, #3
 8000f5a:	e01a      	b.n	8000f92 <HAL_RCC_OscConfig+0x3f2>
 8000f5c:	2003      	movs	r0, #3
 8000f5e:	e018      	b.n	8000f92 <HAL_RCC_OscConfig+0x3f2>
 8000f60:	2001      	movs	r0, #1
 8000f62:	e016      	b.n	8000f92 <HAL_RCC_OscConfig+0x3f2>
 8000f64:	2003      	movs	r0, #3
 8000f66:	e014      	b.n	8000f92 <HAL_RCC_OscConfig+0x3f2>
 8000f68:	2003      	movs	r0, #3
 8000f6a:	e012      	b.n	8000f92 <HAL_RCC_OscConfig+0x3f2>
 8000f6c:	2003      	movs	r0, #3
 8000f6e:	e010      	b.n	8000f92 <HAL_RCC_OscConfig+0x3f2>
 8000f70:	2003      	movs	r0, #3
 8000f72:	e00e      	b.n	8000f92 <HAL_RCC_OscConfig+0x3f2>
 8000f74:	2003      	movs	r0, #3
 8000f76:	e00c      	b.n	8000f92 <HAL_RCC_OscConfig+0x3f2>
 8000f78:	2003      	movs	r0, #3
 8000f7a:	e00a      	b.n	8000f92 <HAL_RCC_OscConfig+0x3f2>
 8000f7c:	2003      	movs	r0, #3
 8000f7e:	e008      	b.n	8000f92 <HAL_RCC_OscConfig+0x3f2>
 8000f80:	2000      	movs	r0, #0
 8000f82:	e006      	b.n	8000f92 <HAL_RCC_OscConfig+0x3f2>
 8000f84:	2001      	movs	r0, #1
 8000f86:	e004      	b.n	8000f92 <HAL_RCC_OscConfig+0x3f2>
 8000f88:	2003      	movs	r0, #3
 8000f8a:	e002      	b.n	8000f92 <HAL_RCC_OscConfig+0x3f2>
 8000f8c:	2003      	movs	r0, #3
 8000f8e:	e000      	b.n	8000f92 <HAL_RCC_OscConfig+0x3f2>
 8000f90:	2003      	movs	r0, #3
 8000f92:	b002      	add	sp, #8
 8000f94:	bd70      	pop	{r4, r5, r6, pc}
 8000f96:	bf00      	nop
 8000f98:	40021000 	.word	0x40021000
 8000f9c:	42420060 	.word	0x42420060

08000fa0 <HAL_RCC_GetSysClockFreq>:
 8000fa0:	b430      	push	{r4, r5}
 8000fa2:	b086      	sub	sp, #24
 8000fa4:	4d16      	ldr	r5, [pc, #88]	; (8001000 <HAL_RCC_GetSysClockFreq+0x60>)
 8000fa6:	ac02      	add	r4, sp, #8
 8000fa8:	6828      	ldr	r0, [r5, #0]
 8000faa:	6869      	ldr	r1, [r5, #4]
 8000fac:	68aa      	ldr	r2, [r5, #8]
 8000fae:	68eb      	ldr	r3, [r5, #12]
 8000fb0:	c40f      	stmia	r4!, {r0, r1, r2, r3}
 8000fb2:	8a2b      	ldrh	r3, [r5, #16]
 8000fb4:	f8ad 3004 	strh.w	r3, [sp, #4]
 8000fb8:	4b12      	ldr	r3, [pc, #72]	; (8001004 <HAL_RCC_GetSysClockFreq+0x64>)
 8000fba:	685b      	ldr	r3, [r3, #4]
 8000fbc:	f003 020c 	and.w	r2, r3, #12
 8000fc0:	2a08      	cmp	r2, #8
 8000fc2:	d119      	bne.n	8000ff8 <HAL_RCC_GetSysClockFreq+0x58>
 8000fc4:	f3c3 4283 	ubfx	r2, r3, #18, #4
 8000fc8:	a906      	add	r1, sp, #24
 8000fca:	440a      	add	r2, r1
 8000fcc:	f812 0c10 	ldrb.w	r0, [r2, #-16]
 8000fd0:	f413 3f80 	tst.w	r3, #65536	; 0x10000
 8000fd4:	d00c      	beq.n	8000ff0 <HAL_RCC_GetSysClockFreq+0x50>
 8000fd6:	4b0b      	ldr	r3, [pc, #44]	; (8001004 <HAL_RCC_GetSysClockFreq+0x64>)
 8000fd8:	685b      	ldr	r3, [r3, #4]
 8000fda:	f3c3 4340 	ubfx	r3, r3, #17, #1
 8000fde:	440b      	add	r3, r1
 8000fe0:	f813 2c14 	ldrb.w	r2, [r3, #-20]
 8000fe4:	4b08      	ldr	r3, [pc, #32]	; (8001008 <HAL_RCC_GetSysClockFreq+0x68>)
 8000fe6:	fb03 f000 	mul.w	r0, r3, r0
 8000fea:	fbb0 f0f2 	udiv	r0, r0, r2
 8000fee:	e004      	b.n	8000ffa <HAL_RCC_GetSysClockFreq+0x5a>
 8000ff0:	4b06      	ldr	r3, [pc, #24]	; (800100c <HAL_RCC_GetSysClockFreq+0x6c>)
 8000ff2:	fb03 f000 	mul.w	r0, r3, r0
 8000ff6:	e000      	b.n	8000ffa <HAL_RCC_GetSysClockFreq+0x5a>
 8000ff8:	4803      	ldr	r0, [pc, #12]	; (8001008 <HAL_RCC_GetSysClockFreq+0x68>)
 8000ffa:	b006      	add	sp, #24
 8000ffc:	bc30      	pop	{r4, r5}
 8000ffe:	4770      	bx	lr
 8001000:	08002e4c 	.word	0x08002e4c
 8001004:	40021000 	.word	0x40021000
 8001008:	007a1200 	.word	0x007a1200
 800100c:	003d0900 	.word	0x003d0900

08001010 <HAL_RCC_ClockConfig>:
 8001010:	b570      	push	{r4, r5, r6, lr}
 8001012:	4b5c      	ldr	r3, [pc, #368]	; (8001184 <HAL_RCC_ClockConfig+0x174>)
 8001014:	681b      	ldr	r3, [r3, #0]
 8001016:	f003 0307 	and.w	r3, r3, #7
 800101a:	428b      	cmp	r3, r1
 800101c:	d20b      	bcs.n	8001036 <HAL_RCC_ClockConfig+0x26>
 800101e:	4a59      	ldr	r2, [pc, #356]	; (8001184 <HAL_RCC_ClockConfig+0x174>)
 8001020:	6813      	ldr	r3, [r2, #0]
 8001022:	f023 0307 	bic.w	r3, r3, #7
 8001026:	430b      	orrs	r3, r1
 8001028:	6013      	str	r3, [r2, #0]
 800102a:	6813      	ldr	r3, [r2, #0]
 800102c:	f003 0307 	and.w	r3, r3, #7
 8001030:	4299      	cmp	r1, r3
 8001032:	f040 8097 	bne.w	8001164 <HAL_RCC_ClockConfig+0x154>
 8001036:	6803      	ldr	r3, [r0, #0]
 8001038:	f013 0f02 	tst.w	r3, #2
 800103c:	d006      	beq.n	800104c <HAL_RCC_ClockConfig+0x3c>
 800103e:	4c52      	ldr	r4, [pc, #328]	; (8001188 <HAL_RCC_ClockConfig+0x178>)
 8001040:	6863      	ldr	r3, [r4, #4]
 8001042:	f023 02f0 	bic.w	r2, r3, #240	; 0xf0
 8001046:	6883      	ldr	r3, [r0, #8]
 8001048:	4313      	orrs	r3, r2
 800104a:	6063      	str	r3, [r4, #4]
 800104c:	460d      	mov	r5, r1
 800104e:	4604      	mov	r4, r0
 8001050:	6803      	ldr	r3, [r0, #0]
 8001052:	f013 0f01 	tst.w	r3, #1
 8001056:	d04d      	beq.n	80010f4 <HAL_RCC_ClockConfig+0xe4>
 8001058:	6842      	ldr	r2, [r0, #4]
 800105a:	2a01      	cmp	r2, #1
 800105c:	d105      	bne.n	800106a <HAL_RCC_ClockConfig+0x5a>
 800105e:	4b4a      	ldr	r3, [pc, #296]	; (8001188 <HAL_RCC_ClockConfig+0x178>)
 8001060:	681b      	ldr	r3, [r3, #0]
 8001062:	f413 3f00 	tst.w	r3, #131072	; 0x20000
 8001066:	d10d      	bne.n	8001084 <HAL_RCC_ClockConfig+0x74>
 8001068:	e07e      	b.n	8001168 <HAL_RCC_ClockConfig+0x158>
 800106a:	2a02      	cmp	r2, #2
 800106c:	d105      	bne.n	800107a <HAL_RCC_ClockConfig+0x6a>
 800106e:	4b46      	ldr	r3, [pc, #280]	; (8001188 <HAL_RCC_ClockConfig+0x178>)
 8001070:	681b      	ldr	r3, [r3, #0]
 8001072:	f013 7f00 	tst.w	r3, #33554432	; 0x2000000
 8001076:	d105      	bne.n	8001084 <HAL_RCC_ClockConfig+0x74>
 8001078:	e078      	b.n	800116c <HAL_RCC_ClockConfig+0x15c>
 800107a:	4b43      	ldr	r3, [pc, #268]	; (8001188 <HAL_RCC_ClockConfig+0x178>)
 800107c:	681b      	ldr	r3, [r3, #0]
 800107e:	f013 0f02 	tst.w	r3, #2
 8001082:	d075      	beq.n	8001170 <HAL_RCC_ClockConfig+0x160>
 8001084:	4940      	ldr	r1, [pc, #256]	; (8001188 <HAL_RCC_ClockConfig+0x178>)
 8001086:	684b      	ldr	r3, [r1, #4]
 8001088:	f023 0303 	bic.w	r3, r3, #3
 800108c:	4313      	orrs	r3, r2
 800108e:	604b      	str	r3, [r1, #4]
 8001090:	f7ff fd6a 	bl	8000b68 <HAL_GetTick>
 8001094:	4606      	mov	r6, r0
 8001096:	6863      	ldr	r3, [r4, #4]
 8001098:	2b01      	cmp	r3, #1
 800109a:	d10e      	bne.n	80010ba <HAL_RCC_ClockConfig+0xaa>
 800109c:	e006      	b.n	80010ac <HAL_RCC_ClockConfig+0x9c>
 800109e:	f7ff fd63 	bl	8000b68 <HAL_GetTick>
 80010a2:	1b80      	subs	r0, r0, r6
 80010a4:	f241 3388 	movw	r3, #5000	; 0x1388
 80010a8:	4298      	cmp	r0, r3
 80010aa:	d863      	bhi.n	8001174 <HAL_RCC_ClockConfig+0x164>
 80010ac:	4b36      	ldr	r3, [pc, #216]	; (8001188 <HAL_RCC_ClockConfig+0x178>)
 80010ae:	685b      	ldr	r3, [r3, #4]
 80010b0:	f003 030c 	and.w	r3, r3, #12
 80010b4:	2b04      	cmp	r3, #4
 80010b6:	d1f2      	bne.n	800109e <HAL_RCC_ClockConfig+0x8e>
 80010b8:	e01c      	b.n	80010f4 <HAL_RCC_ClockConfig+0xe4>
 80010ba:	2b02      	cmp	r3, #2
 80010bc:	d115      	bne.n	80010ea <HAL_RCC_ClockConfig+0xda>
 80010be:	e006      	b.n	80010ce <HAL_RCC_ClockConfig+0xbe>
 80010c0:	f7ff fd52 	bl	8000b68 <HAL_GetTick>
 80010c4:	1b80      	subs	r0, r0, r6
 80010c6:	f241 3388 	movw	r3, #5000	; 0x1388
 80010ca:	4298      	cmp	r0, r3
 80010cc:	d854      	bhi.n	8001178 <HAL_RCC_ClockConfig+0x168>
 80010ce:	4b2e      	ldr	r3, [pc, #184]	; (8001188 <HAL_RCC_ClockConfig+0x178>)
 80010d0:	685b      	ldr	r3, [r3, #4]
 80010d2:	f003 030c 	and.w	r3, r3, #12
 80010d6:	2b08      	cmp	r3, #8
 80010d8:	d1f2      	bne.n	80010c0 <HAL_RCC_ClockConfig+0xb0>
 80010da:	e00b      	b.n	80010f4 <HAL_RCC_ClockConfig+0xe4>
 80010dc:	f7ff fd44 	bl	8000b68 <HAL_GetTick>
 80010e0:	1b80      	subs	r0, r0, r6
 80010e2:	f241 3388 	movw	r3, #5000	; 0x1388
 80010e6:	4298      	cmp	r0, r3
 80010e8:	d848      	bhi.n	800117c <HAL_RCC_ClockConfig+0x16c>
 80010ea:	4b27      	ldr	r3, [pc, #156]	; (8001188 <HAL_RCC_ClockConfig+0x178>)
 80010ec:	685b      	ldr	r3, [r3, #4]
 80010ee:	f013 0f0c 	tst.w	r3, #12
 80010f2:	d1f3      	bne.n	80010dc <HAL_RCC_ClockConfig+0xcc>
 80010f4:	4b23      	ldr	r3, [pc, #140]	; (8001184 <HAL_RCC_ClockConfig+0x174>)
 80010f6:	681b      	ldr	r3, [r3, #0]
 80010f8:	f003 0307 	and.w	r3, r3, #7
 80010fc:	429d      	cmp	r5, r3
 80010fe:	d20a      	bcs.n	8001116 <HAL_RCC_ClockConfig+0x106>
 8001100:	4a20      	ldr	r2, [pc, #128]	; (8001184 <HAL_RCC_ClockConfig+0x174>)
 8001102:	6813      	ldr	r3, [r2, #0]
 8001104:	f023 0307 	bic.w	r3, r3, #7
 8001108:	432b      	orrs	r3, r5
 800110a:	6013      	str	r3, [r2, #0]
 800110c:	6813      	ldr	r3, [r2, #0]
 800110e:	f003 0307 	and.w	r3, r3, #7
 8001112:	429d      	cmp	r5, r3
 8001114:	d134      	bne.n	8001180 <HAL_RCC_ClockConfig+0x170>
 8001116:	6823      	ldr	r3, [r4, #0]
 8001118:	f013 0f04 	tst.w	r3, #4
 800111c:	d006      	beq.n	800112c <HAL_RCC_ClockConfig+0x11c>
 800111e:	491a      	ldr	r1, [pc, #104]	; (8001188 <HAL_RCC_ClockConfig+0x178>)
 8001120:	684b      	ldr	r3, [r1, #4]
 8001122:	f423 62e0 	bic.w	r2, r3, #1792	; 0x700
 8001126:	68e3      	ldr	r3, [r4, #12]
 8001128:	4313      	orrs	r3, r2
 800112a:	604b      	str	r3, [r1, #4]
 800112c:	6823      	ldr	r3, [r4, #0]
 800112e:	f013 0f08 	tst.w	r3, #8
 8001132:	d007      	beq.n	8001144 <HAL_RCC_ClockConfig+0x134>
 8001134:	4a14      	ldr	r2, [pc, #80]	; (8001188 <HAL_RCC_ClockConfig+0x178>)
 8001136:	6853      	ldr	r3, [r2, #4]
 8001138:	f423 5360 	bic.w	r3, r3, #14336	; 0x3800
 800113c:	6921      	ldr	r1, [r4, #16]
 800113e:	ea43 03c1 	orr.w	r3, r3, r1, lsl #3
 8001142:	6053      	str	r3, [r2, #4]
 8001144:	f7ff ff2c 	bl	8000fa0 <HAL_RCC_GetSysClockFreq>
 8001148:	4b0f      	ldr	r3, [pc, #60]	; (8001188 <HAL_RCC_ClockConfig+0x178>)
 800114a:	685b      	ldr	r3, [r3, #4]
 800114c:	f3c3 1303 	ubfx	r3, r3, #4, #4
 8001150:	4a0e      	ldr	r2, [pc, #56]	; (800118c <HAL_RCC_ClockConfig+0x17c>)
 8001152:	5cd3      	ldrb	r3, [r2, r3]
 8001154:	40d8      	lsrs	r0, r3
 8001156:	4b0e      	ldr	r3, [pc, #56]	; (8001190 <HAL_RCC_ClockConfig+0x180>)
 8001158:	6018      	str	r0, [r3, #0]
 800115a:	2000      	movs	r0, #0
 800115c:	f7ff fb6c 	bl	8000838 <HAL_InitTick>
 8001160:	2000      	movs	r0, #0
 8001162:	bd70      	pop	{r4, r5, r6, pc}
 8001164:	2001      	movs	r0, #1
 8001166:	bd70      	pop	{r4, r5, r6, pc}
 8001168:	2001      	movs	r0, #1
 800116a:	bd70      	pop	{r4, r5, r6, pc}
 800116c:	2001      	movs	r0, #1
 800116e:	bd70      	pop	{r4, r5, r6, pc}
 8001170:	2001      	movs	r0, #1
 8001172:	bd70      	pop	{r4, r5, r6, pc}
 8001174:	2003      	movs	r0, #3
 8001176:	bd70      	pop	{r4, r5, r6, pc}
 8001178:	2003      	movs	r0, #3
 800117a:	bd70      	pop	{r4, r5, r6, pc}
 800117c:	2003      	movs	r0, #3
 800117e:	bd70      	pop	{r4, r5, r6, pc}
 8001180:	2001      	movs	r0, #1
 8001182:	bd70      	pop	{r4, r5, r6, pc}
 8001184:	40022000 	.word	0x40022000
 8001188:	40021000 	.word	0x40021000
 800118c:	08002e8c 	.word	0x08002e8c
 8001190:	20000004 	.word	0x20000004

08001194 <HAL_RCC_GetHCLKFreq>:
 8001194:	4b01      	ldr	r3, [pc, #4]	; (800119c <HAL_RCC_GetHCLKFreq+0x8>)
 8001196:	6818      	ldr	r0, [r3, #0]
 8001198:	4770      	bx	lr
 800119a:	bf00      	nop
 800119c:	20000004 	.word	0x20000004

080011a0 <HAL_RCC_GetPCLK1Freq>:
 80011a0:	b508      	push	{r3, lr}
 80011a2:	f7ff fff7 	bl	8001194 <HAL_RCC_GetHCLKFreq>
 80011a6:	4b04      	ldr	r3, [pc, #16]	; (80011b8 <HAL_RCC_GetPCLK1Freq+0x18>)
 80011a8:	685b      	ldr	r3, [r3, #4]
 80011aa:	f3c3 2302 	ubfx	r3, r3, #8, #3
 80011ae:	4a03      	ldr	r2, [pc, #12]	; (80011bc <HAL_RCC_GetPCLK1Freq+0x1c>)
 80011b0:	5cd3      	ldrb	r3, [r2, r3]
 80011b2:	40d8      	lsrs	r0, r3
 80011b4:	bd08      	pop	{r3, pc}
 80011b6:	bf00      	nop
 80011b8:	40021000 	.word	0x40021000
 80011bc:	08002e9c 	.word	0x08002e9c

080011c0 <HAL_RCC_GetClockConfig>:
 80011c0:	230f      	movs	r3, #15
 80011c2:	6003      	str	r3, [r0, #0]
 80011c4:	4b0b      	ldr	r3, [pc, #44]	; (80011f4 <HAL_RCC_GetClockConfig+0x34>)
 80011c6:	685a      	ldr	r2, [r3, #4]
 80011c8:	f002 0203 	and.w	r2, r2, #3
 80011cc:	6042      	str	r2, [r0, #4]
 80011ce:	685a      	ldr	r2, [r3, #4]
 80011d0:	f002 02f0 	and.w	r2, r2, #240	; 0xf0
 80011d4:	6082      	str	r2, [r0, #8]
 80011d6:	685a      	ldr	r2, [r3, #4]
 80011d8:	f402 62e0 	and.w	r2, r2, #1792	; 0x700
 80011dc:	60c2      	str	r2, [r0, #12]
 80011de:	685b      	ldr	r3, [r3, #4]
 80011e0:	08db      	lsrs	r3, r3, #3
 80011e2:	f403 63e0 	and.w	r3, r3, #1792	; 0x700
 80011e6:	6103      	str	r3, [r0, #16]
 80011e8:	4b03      	ldr	r3, [pc, #12]	; (80011f8 <HAL_RCC_GetClockConfig+0x38>)
 80011ea:	681b      	ldr	r3, [r3, #0]
 80011ec:	f003 0307 	and.w	r3, r3, #7
 80011f0:	600b      	str	r3, [r1, #0]
 80011f2:	4770      	bx	lr
 80011f4:	40021000 	.word	0x40021000
 80011f8:	40022000 	.word	0x40022000

080011fc <HAL_GPIO_Init>:
 80011fc:	b5f0      	push	{r4, r5, r6, r7, lr}
 80011fe:	b083      	sub	sp, #12
 8001200:	2600      	movs	r6, #0
 8001202:	4634      	mov	r4, r6
 8001204:	e0df      	b.n	80013c6 <HAL_GPIO_Init+0x1ca>
 8001206:	2201      	movs	r2, #1
 8001208:	40a2      	lsls	r2, r4
 800120a:	680b      	ldr	r3, [r1, #0]
 800120c:	4013      	ands	r3, r2
 800120e:	429a      	cmp	r2, r3
 8001210:	f040 80d8 	bne.w	80013c4 <HAL_GPIO_Init+0x1c8>
 8001214:	684d      	ldr	r5, [r1, #4]
 8001216:	2d12      	cmp	r5, #18
 8001218:	d02d      	beq.n	8001276 <HAL_GPIO_Init+0x7a>
 800121a:	d80b      	bhi.n	8001234 <HAL_GPIO_Init+0x38>
 800121c:	2d02      	cmp	r5, #2
 800121e:	d027      	beq.n	8001270 <HAL_GPIO_Init+0x74>
 8001220:	d803      	bhi.n	800122a <HAL_GPIO_Init+0x2e>
 8001222:	b35d      	cbz	r5, 800127c <HAL_GPIO_Init+0x80>
 8001224:	2d01      	cmp	r5, #1
 8001226:	d01e      	beq.n	8001266 <HAL_GPIO_Init+0x6a>
 8001228:	e035      	b.n	8001296 <HAL_GPIO_Init+0x9a>
 800122a:	2d03      	cmp	r5, #3
 800122c:	d030      	beq.n	8001290 <HAL_GPIO_Init+0x94>
 800122e:	2d11      	cmp	r5, #17
 8001230:	d01b      	beq.n	800126a <HAL_GPIO_Init+0x6e>
 8001232:	e030      	b.n	8001296 <HAL_GPIO_Init+0x9a>
 8001234:	4f66      	ldr	r7, [pc, #408]	; (80013d0 <HAL_GPIO_Init+0x1d4>)
 8001236:	42bd      	cmp	r5, r7
 8001238:	d020      	beq.n	800127c <HAL_GPIO_Init+0x80>
 800123a:	d808      	bhi.n	800124e <HAL_GPIO_Init+0x52>
 800123c:	f5a7 1780 	sub.w	r7, r7, #1048576	; 0x100000
 8001240:	42bd      	cmp	r5, r7
 8001242:	d01b      	beq.n	800127c <HAL_GPIO_Init+0x80>
 8001244:	f507 3780 	add.w	r7, r7, #65536	; 0x10000
 8001248:	42bd      	cmp	r5, r7
 800124a:	d124      	bne.n	8001296 <HAL_GPIO_Init+0x9a>
 800124c:	e016      	b.n	800127c <HAL_GPIO_Init+0x80>
 800124e:	4f61      	ldr	r7, [pc, #388]	; (80013d4 <HAL_GPIO_Init+0x1d8>)
 8001250:	42bd      	cmp	r5, r7
 8001252:	d013      	beq.n	800127c <HAL_GPIO_Init+0x80>
 8001254:	f507 3780 	add.w	r7, r7, #65536	; 0x10000
 8001258:	42bd      	cmp	r5, r7
 800125a:	d00f      	beq.n	800127c <HAL_GPIO_Init+0x80>
 800125c:	f5a7 1780 	sub.w	r7, r7, #1048576	; 0x100000
 8001260:	42bd      	cmp	r5, r7
 8001262:	d118      	bne.n	8001296 <HAL_GPIO_Init+0x9a>
 8001264:	e00a      	b.n	800127c <HAL_GPIO_Init+0x80>
 8001266:	68ce      	ldr	r6, [r1, #12]
 8001268:	e015      	b.n	8001296 <HAL_GPIO_Init+0x9a>
 800126a:	68ce      	ldr	r6, [r1, #12]
 800126c:	3604      	adds	r6, #4
 800126e:	e012      	b.n	8001296 <HAL_GPIO_Init+0x9a>
 8001270:	68ce      	ldr	r6, [r1, #12]
 8001272:	3608      	adds	r6, #8
 8001274:	e00f      	b.n	8001296 <HAL_GPIO_Init+0x9a>
 8001276:	68ce      	ldr	r6, [r1, #12]
 8001278:	360c      	adds	r6, #12
 800127a:	e00c      	b.n	8001296 <HAL_GPIO_Init+0x9a>
 800127c:	688d      	ldr	r5, [r1, #8]
 800127e:	b14d      	cbz	r5, 8001294 <HAL_GPIO_Init+0x98>
 8001280:	2d01      	cmp	r5, #1
 8001282:	d102      	bne.n	800128a <HAL_GPIO_Init+0x8e>
 8001284:	6102      	str	r2, [r0, #16]
 8001286:	2608      	movs	r6, #8
 8001288:	e005      	b.n	8001296 <HAL_GPIO_Init+0x9a>
 800128a:	6142      	str	r2, [r0, #20]
 800128c:	2608      	movs	r6, #8
 800128e:	e002      	b.n	8001296 <HAL_GPIO_Init+0x9a>
 8001290:	2600      	movs	r6, #0
 8001292:	e000      	b.n	8001296 <HAL_GPIO_Init+0x9a>
 8001294:	2604      	movs	r6, #4
 8001296:	2bff      	cmp	r3, #255	; 0xff
 8001298:	d801      	bhi.n	800129e <HAL_GPIO_Init+0xa2>
 800129a:	4686      	mov	lr, r0
 800129c:	e001      	b.n	80012a2 <HAL_GPIO_Init+0xa6>
 800129e:	f100 0e04 	add.w	lr, r0, #4
 80012a2:	2bff      	cmp	r3, #255	; 0xff
 80012a4:	d801      	bhi.n	80012aa <HAL_GPIO_Init+0xae>
 80012a6:	00a2      	lsls	r2, r4, #2
 80012a8:	e002      	b.n	80012b0 <HAL_GPIO_Init+0xb4>
 80012aa:	f1a4 0208 	sub.w	r2, r4, #8
 80012ae:	0092      	lsls	r2, r2, #2
 80012b0:	f8de 7000 	ldr.w	r7, [lr]
 80012b4:	250f      	movs	r5, #15
 80012b6:	4095      	lsls	r5, r2
 80012b8:	ea27 0505 	bic.w	r5, r7, r5
 80012bc:	fa06 f202 	lsl.w	r2, r6, r2
 80012c0:	432a      	orrs	r2, r5
 80012c2:	f8ce 2000 	str.w	r2, [lr]
 80012c6:	684a      	ldr	r2, [r1, #4]
 80012c8:	f012 5f80 	tst.w	r2, #268435456	; 0x10000000
 80012cc:	d07a      	beq.n	80013c4 <HAL_GPIO_Init+0x1c8>
 80012ce:	4a42      	ldr	r2, [pc, #264]	; (80013d8 <HAL_GPIO_Init+0x1dc>)
 80012d0:	6995      	ldr	r5, [r2, #24]
 80012d2:	f045 0501 	orr.w	r5, r5, #1
 80012d6:	6195      	str	r5, [r2, #24]
 80012d8:	6992      	ldr	r2, [r2, #24]
 80012da:	f002 0201 	and.w	r2, r2, #1
 80012de:	9201      	str	r2, [sp, #4]
 80012e0:	9a01      	ldr	r2, [sp, #4]
 80012e2:	08a7      	lsrs	r7, r4, #2
 80012e4:	1cbd      	adds	r5, r7, #2
 80012e6:	4a3d      	ldr	r2, [pc, #244]	; (80013dc <HAL_GPIO_Init+0x1e0>)
 80012e8:	f852 e025 	ldr.w	lr, [r2, r5, lsl #2]
 80012ec:	f004 0203 	and.w	r2, r4, #3
 80012f0:	0092      	lsls	r2, r2, #2
 80012f2:	250f      	movs	r5, #15
 80012f4:	4095      	lsls	r5, r2
 80012f6:	ea2e 0e05 	bic.w	lr, lr, r5
 80012fa:	4d39      	ldr	r5, [pc, #228]	; (80013e0 <HAL_GPIO_Init+0x1e4>)
 80012fc:	42a8      	cmp	r0, r5
 80012fe:	d015      	beq.n	800132c <HAL_GPIO_Init+0x130>
 8001300:	f505 6580 	add.w	r5, r5, #1024	; 0x400
 8001304:	42a8      	cmp	r0, r5
 8001306:	d013      	beq.n	8001330 <HAL_GPIO_Init+0x134>
 8001308:	f505 6580 	add.w	r5, r5, #1024	; 0x400
 800130c:	42a8      	cmp	r0, r5
 800130e:	d011      	beq.n	8001334 <HAL_GPIO_Init+0x138>
 8001310:	f505 6580 	add.w	r5, r5, #1024	; 0x400
 8001314:	42a8      	cmp	r0, r5
 8001316:	d00f      	beq.n	8001338 <HAL_GPIO_Init+0x13c>
 8001318:	f505 6580 	add.w	r5, r5, #1024	; 0x400
 800131c:	42a8      	cmp	r0, r5
 800131e:	d00d      	beq.n	800133c <HAL_GPIO_Init+0x140>
 8001320:	f505 6580 	add.w	r5, r5, #1024	; 0x400
 8001324:	42a8      	cmp	r0, r5
 8001326:	d10b      	bne.n	8001340 <HAL_GPIO_Init+0x144>
 8001328:	2505      	movs	r5, #5
 800132a:	e00a      	b.n	8001342 <HAL_GPIO_Init+0x146>
 800132c:	2500      	movs	r5, #0
 800132e:	e008      	b.n	8001342 <HAL_GPIO_Init+0x146>
 8001330:	2501      	movs	r5, #1
 8001332:	e006      	b.n	8001342 <HAL_GPIO_Init+0x146>
 8001334:	2502      	movs	r5, #2
 8001336:	e004      	b.n	8001342 <HAL_GPIO_Init+0x146>
 8001338:	2503      	movs	r5, #3
 800133a:	e002      	b.n	8001342 <HAL_GPIO_Init+0x146>
 800133c:	2504      	movs	r5, #4
 800133e:	e000      	b.n	8001342 <HAL_GPIO_Init+0x146>
 8001340:	2506      	movs	r5, #6
 8001342:	fa05 f202 	lsl.w	r2, r5, r2
 8001346:	ea4e 0202 	orr.w	r2, lr, r2
 800134a:	3702      	adds	r7, #2
 800134c:	4d23      	ldr	r5, [pc, #140]	; (80013dc <HAL_GPIO_Init+0x1e0>)
 800134e:	f845 2027 	str.w	r2, [r5, r7, lsl #2]
 8001352:	684a      	ldr	r2, [r1, #4]
 8001354:	f412 3f80 	tst.w	r2, #65536	; 0x10000
 8001358:	d005      	beq.n	8001366 <HAL_GPIO_Init+0x16a>
 800135a:	f505 6580 	add.w	r5, r5, #1024	; 0x400
 800135e:	682a      	ldr	r2, [r5, #0]
 8001360:	431a      	orrs	r2, r3
 8001362:	602a      	str	r2, [r5, #0]
 8001364:	e004      	b.n	8001370 <HAL_GPIO_Init+0x174>
 8001366:	4d1f      	ldr	r5, [pc, #124]	; (80013e4 <HAL_GPIO_Init+0x1e8>)
 8001368:	682a      	ldr	r2, [r5, #0]
 800136a:	ea22 0203 	bic.w	r2, r2, r3
 800136e:	602a      	str	r2, [r5, #0]
 8001370:	684a      	ldr	r2, [r1, #4]
 8001372:	f412 3f00 	tst.w	r2, #131072	; 0x20000
 8001376:	d004      	beq.n	8001382 <HAL_GPIO_Init+0x186>
 8001378:	4d1a      	ldr	r5, [pc, #104]	; (80013e4 <HAL_GPIO_Init+0x1e8>)
 800137a:	686a      	ldr	r2, [r5, #4]
 800137c:	431a      	orrs	r2, r3
 800137e:	606a      	str	r2, [r5, #4]
 8001380:	e004      	b.n	800138c <HAL_GPIO_Init+0x190>
 8001382:	4d18      	ldr	r5, [pc, #96]	; (80013e4 <HAL_GPIO_Init+0x1e8>)
 8001384:	686a      	ldr	r2, [r5, #4]
 8001386:	ea22 0203 	bic.w	r2, r2, r3
 800138a:	606a      	str	r2, [r5, #4]
 800138c:	684a      	ldr	r2, [r1, #4]
 800138e:	f412 1f80 	tst.w	r2, #1048576	; 0x100000
 8001392:	d004      	beq.n	800139e <HAL_GPIO_Init+0x1a2>
 8001394:	4d13      	ldr	r5, [pc, #76]	; (80013e4 <HAL_GPIO_Init+0x1e8>)
 8001396:	68aa      	ldr	r2, [r5, #8]
 8001398:	431a      	orrs	r2, r3
 800139a:	60aa      	str	r2, [r5, #8]
 800139c:	e004      	b.n	80013a8 <HAL_GPIO_Init+0x1ac>
 800139e:	4d11      	ldr	r5, [pc, #68]	; (80013e4 <HAL_GPIO_Init+0x1e8>)
 80013a0:	68aa      	ldr	r2, [r5, #8]
 80013a2:	ea22 0203 	bic.w	r2, r2, r3
 80013a6:	60aa      	str	r2, [r5, #8]
 80013a8:	684a      	ldr	r2, [r1, #4]
 80013aa:	f412 1f00 	tst.w	r2, #2097152	; 0x200000
 80013ae:	d004      	beq.n	80013ba <HAL_GPIO_Init+0x1be>
 80013b0:	4d0c      	ldr	r5, [pc, #48]	; (80013e4 <HAL_GPIO_Init+0x1e8>)
 80013b2:	68ea      	ldr	r2, [r5, #12]
 80013b4:	4313      	orrs	r3, r2
 80013b6:	60eb      	str	r3, [r5, #12]
 80013b8:	e004      	b.n	80013c4 <HAL_GPIO_Init+0x1c8>
 80013ba:	4d0a      	ldr	r5, [pc, #40]	; (80013e4 <HAL_GPIO_Init+0x1e8>)
 80013bc:	68ea      	ldr	r2, [r5, #12]
 80013be:	ea22 0303 	bic.w	r3, r2, r3
 80013c2:	60eb      	str	r3, [r5, #12]
 80013c4:	3401      	adds	r4, #1
 80013c6:	2c0f      	cmp	r4, #15
 80013c8:	f67f af1d 	bls.w	8001206 <HAL_GPIO_Init+0xa>
 80013cc:	b003      	add	sp, #12
 80013ce:	bdf0      	pop	{r4, r5, r6, r7, pc}
 80013d0:	10210000 	.word	0x10210000
 80013d4:	10310000 	.word	0x10310000
 80013d8:	40021000 	.word	0x40021000
 80013dc:	40010000 	.word	0x40010000
 80013e0:	40010800 	.word	0x40010800
 80013e4:	40010400 	.word	0x40010400

080013e8 <HAL_GPIO_WritePin>:
 80013e8:	b10a      	cbz	r2, 80013ee <HAL_GPIO_WritePin+0x6>
 80013ea:	6101      	str	r1, [r0, #16]
 80013ec:	4770      	bx	lr
 80013ee:	0409      	lsls	r1, r1, #16
 80013f0:	6101      	str	r1, [r0, #16]
 80013f2:	4770      	bx	lr

080013f4 <HAL_NVIC_SetPriorityGrouping>:
 80013f4:	4a07      	ldr	r2, [pc, #28]	; (8001414 <HAL_NVIC_SetPriorityGrouping+0x20>)
 80013f6:	68d3      	ldr	r3, [r2, #12]
 80013f8:	f423 63e0 	bic.w	r3, r3, #1792	; 0x700
 80013fc:	041b      	lsls	r3, r3, #16
 80013fe:	0c1b      	lsrs	r3, r3, #16
 8001400:	0200      	lsls	r0, r0, #8
 8001402:	f400 60e0 	and.w	r0, r0, #1792	; 0x700
 8001406:	4318      	orrs	r0, r3
 8001408:	f040 60bf 	orr.w	r0, r0, #100139008	; 0x5f80000
 800140c:	f440 3000 	orr.w	r0, r0, #131072	; 0x20000
 8001410:	60d0      	str	r0, [r2, #12]
 8001412:	4770      	bx	lr
 8001414:	e000ed00 	.word	0xe000ed00

08001418 <HAL_NVIC_SetPriority>:
 8001418:	b430      	push	{r4, r5}
 800141a:	4b16      	ldr	r3, [pc, #88]	; (8001474 <HAL_NVIC_SetPriority+0x5c>)
 800141c:	68db      	ldr	r3, [r3, #12]
 800141e:	f3c3 2302 	ubfx	r3, r3, #8, #3
 8001422:	f1c3 0407 	rsb	r4, r3, #7
 8001426:	2c04      	cmp	r4, #4
 8001428:	bf28      	it	cs
 800142a:	2404      	movcs	r4, #4
 800142c:	1d1d      	adds	r5, r3, #4
 800142e:	2d06      	cmp	r5, #6
 8001430:	d901      	bls.n	8001436 <HAL_NVIC_SetPriority+0x1e>
 8001432:	1edd      	subs	r5, r3, #3
 8001434:	e000      	b.n	8001438 <HAL_NVIC_SetPriority+0x20>
 8001436:	2500      	movs	r5, #0
 8001438:	2301      	movs	r3, #1
 800143a:	fa03 f404 	lsl.w	r4, r3, r4
 800143e:	3c01      	subs	r4, #1
 8001440:	4021      	ands	r1, r4
 8001442:	40a9      	lsls	r1, r5
 8001444:	40ab      	lsls	r3, r5
 8001446:	3b01      	subs	r3, #1
 8001448:	401a      	ands	r2, r3
 800144a:	430a      	orrs	r2, r1
 800144c:	2800      	cmp	r0, #0
 800144e:	da06      	bge.n	800145e <HAL_NVIC_SetPriority+0x46>
 8001450:	f000 000f 	and.w	r0, r0, #15
 8001454:	0112      	lsls	r2, r2, #4
 8001456:	b2d2      	uxtb	r2, r2
 8001458:	4b07      	ldr	r3, [pc, #28]	; (8001478 <HAL_NVIC_SetPriority+0x60>)
 800145a:	541a      	strb	r2, [r3, r0]
 800145c:	e007      	b.n	800146e <HAL_NVIC_SetPriority+0x56>
 800145e:	0112      	lsls	r2, r2, #4
 8001460:	b2d2      	uxtb	r2, r2
 8001462:	f100 4060 	add.w	r0, r0, #3758096384	; 0xe0000000
 8001466:	f500 4061 	add.w	r0, r0, #57600	; 0xe100
 800146a:	f880 2300 	strb.w	r2, [r0, #768]	; 0x300
 800146e:	bc30      	pop	{r4, r5}
 8001470:	4770      	bx	lr
 8001472:	bf00      	nop
 8001474:	e000ed00 	.word	0xe000ed00
 8001478:	e000ed14 	.word	0xe000ed14

0800147c <HAL_NVIC_EnableIRQ>:
 800147c:	0942      	lsrs	r2, r0, #5
 800147e:	f000 001f 	and.w	r0, r0, #31
 8001482:	2301      	movs	r3, #1
 8001484:	fa03 f000 	lsl.w	r0, r3, r0
 8001488:	4b01      	ldr	r3, [pc, #4]	; (8001490 <HAL_NVIC_EnableIRQ+0x14>)
 800148a:	f843 0022 	str.w	r0, [r3, r2, lsl #2]
 800148e:	4770      	bx	lr
 8001490:	e000e100 	.word	0xe000e100

08001494 <HAL_SYSTICK_Config>:
 8001494:	3801      	subs	r0, #1
 8001496:	f1b0 7f80 	cmp.w	r0, #16777216	; 0x1000000
 800149a:	d20a      	bcs.n	80014b2 <HAL_SYSTICK_Config+0x1e>
 800149c:	4b06      	ldr	r3, [pc, #24]	; (80014b8 <HAL_SYSTICK_Config+0x24>)
 800149e:	6058      	str	r0, [r3, #4]
 80014a0:	21f0      	movs	r1, #240	; 0xf0
 80014a2:	4a06      	ldr	r2, [pc, #24]	; (80014bc <HAL_SYSTICK_Config+0x28>)
 80014a4:	f882 1023 	strb.w	r1, [r2, #35]	; 0x23
 80014a8:	2000      	movs	r0, #0
 80014aa:	6098      	str	r0, [r3, #8]
 80014ac:	2207      	movs	r2, #7
 80014ae:	601a      	str	r2, [r3, #0]
 80014b0:	4770      	bx	lr
 80014b2:	2001      	movs	r0, #1
 80014b4:	4770      	bx	lr
 80014b6:	bf00      	nop
 80014b8:	e000e010 	.word	0xe000e010
 80014bc:	e000ed00 	.word	0xe000ed00

080014c0 <HAL_SYSTICK_CLKSourceConfig>:
 80014c0:	2804      	cmp	r0, #4
 80014c2:	d105      	bne.n	80014d0 <HAL_SYSTICK_CLKSourceConfig+0x10>
 80014c4:	4a05      	ldr	r2, [pc, #20]	; (80014dc <HAL_SYSTICK_CLKSourceConfig+0x1c>)
 80014c6:	6813      	ldr	r3, [r2, #0]
 80014c8:	f043 0304 	orr.w	r3, r3, #4
 80014cc:	6013      	str	r3, [r2, #0]
 80014ce:	4770      	bx	lr
 80014d0:	4a02      	ldr	r2, [pc, #8]	; (80014dc <HAL_SYSTICK_CLKSourceConfig+0x1c>)
 80014d2:	6813      	ldr	r3, [r2, #0]
 80014d4:	f023 0304 	bic.w	r3, r3, #4
 80014d8:	6013      	str	r3, [r2, #0]
 80014da:	4770      	bx	lr
 80014dc:	e000e010 	.word	0xe000e010

080014e0 <SystemInit>:
 80014e0:	4b0f      	ldr	r3, [pc, #60]	; (8001520 <SystemInit+0x40>)
 80014e2:	681a      	ldr	r2, [r3, #0]
 80014e4:	f042 0201 	orr.w	r2, r2, #1
 80014e8:	601a      	str	r2, [r3, #0]
 80014ea:	6859      	ldr	r1, [r3, #4]
 80014ec:	4a0d      	ldr	r2, [pc, #52]	; (8001524 <SystemInit+0x44>)
 80014ee:	400a      	ands	r2, r1
 80014f0:	605a      	str	r2, [r3, #4]
 80014f2:	681a      	ldr	r2, [r3, #0]
 80014f4:	f022 7284 	bic.w	r2, r2, #17301504	; 0x1080000
 80014f8:	f422 3280 	bic.w	r2, r2, #65536	; 0x10000
 80014fc:	601a      	str	r2, [r3, #0]
 80014fe:	681a      	ldr	r2, [r3, #0]
 8001500:	f422 2280 	bic.w	r2, r2, #262144	; 0x40000
 8001504:	601a      	str	r2, [r3, #0]
 8001506:	685a      	ldr	r2, [r3, #4]
 8001508:	f422 02fe 	bic.w	r2, r2, #8323072	; 0x7f0000
 800150c:	605a      	str	r2, [r3, #4]
 800150e:	f44f 021f 	mov.w	r2, #10420224	; 0x9f0000
 8001512:	609a      	str	r2, [r3, #8]
 8001514:	f04f 6200 	mov.w	r2, #134217728	; 0x8000000
 8001518:	4b03      	ldr	r3, [pc, #12]	; (8001528 <SystemInit+0x48>)
 800151a:	609a      	str	r2, [r3, #8]
 800151c:	4770      	bx	lr
 800151e:	bf00      	nop
 8001520:	40021000 	.word	0x40021000
 8001524:	f8ff0000 	.word	0xf8ff0000
 8001528:	e000ed00 	.word	0xe000ed00

0800152c <prvHeapInit>:
 800152c:	4a12      	ldr	r2, [pc, #72]	; (8001578 <prvHeapInit+0x4c>)
 800152e:	f012 0f07 	tst.w	r2, #7
 8001532:	d007      	beq.n	8001544 <prvHeapInit+0x18>
 8001534:	1dd1      	adds	r1, r2, #7
 8001536:	f021 0107 	bic.w	r1, r1, #7
 800153a:	f5c1 6340 	rsb	r3, r1, #3072	; 0xc00
 800153e:	4413      	add	r3, r2
 8001540:	460a      	mov	r2, r1
 8001542:	e001      	b.n	8001548 <prvHeapInit+0x1c>
 8001544:	f44f 6340 	mov.w	r3, #3072	; 0xc00
 8001548:	480c      	ldr	r0, [pc, #48]	; (800157c <prvHeapInit+0x50>)
 800154a:	6002      	str	r2, [r0, #0]
 800154c:	2100      	movs	r1, #0
 800154e:	6041      	str	r1, [r0, #4]
 8001550:	4413      	add	r3, r2
 8001552:	3b08      	subs	r3, #8
 8001554:	f023 0307 	bic.w	r3, r3, #7
 8001558:	4809      	ldr	r0, [pc, #36]	; (8001580 <prvHeapInit+0x54>)
 800155a:	6003      	str	r3, [r0, #0]
 800155c:	6059      	str	r1, [r3, #4]
 800155e:	6019      	str	r1, [r3, #0]
 8001560:	1a99      	subs	r1, r3, r2
 8001562:	6051      	str	r1, [r2, #4]
 8001564:	6013      	str	r3, [r2, #0]
 8001566:	4b07      	ldr	r3, [pc, #28]	; (8001584 <prvHeapInit+0x58>)
 8001568:	6019      	str	r1, [r3, #0]
 800156a:	4b07      	ldr	r3, [pc, #28]	; (8001588 <prvHeapInit+0x5c>)
 800156c:	6019      	str	r1, [r3, #0]
 800156e:	f04f 4200 	mov.w	r2, #2147483648	; 0x80000000
 8001572:	4b06      	ldr	r3, [pc, #24]	; (800158c <prvHeapInit+0x60>)
 8001574:	601a      	str	r2, [r3, #0]
 8001576:	4770      	bx	lr
 8001578:	20000040 	.word	0x20000040
 800157c:	20000038 	.word	0x20000038
 8001580:	20000034 	.word	0x20000034
 8001584:	20000c44 	.word	0x20000c44
 8001588:	20000030 	.word	0x20000030
 800158c:	20000c40 	.word	0x20000c40

08001590 <prvInsertBlockIntoFreeList>:
 8001590:	4b12      	ldr	r3, [pc, #72]	; (80015dc <prvInsertBlockIntoFreeList+0x4c>)
 8001592:	e000      	b.n	8001596 <prvInsertBlockIntoFreeList+0x6>
 8001594:	4613      	mov	r3, r2
 8001596:	681a      	ldr	r2, [r3, #0]
 8001598:	4282      	cmp	r2, r0
 800159a:	d3fb      	bcc.n	8001594 <prvInsertBlockIntoFreeList+0x4>
 800159c:	b410      	push	{r4}
 800159e:	685c      	ldr	r4, [r3, #4]
 80015a0:	1919      	adds	r1, r3, r4
 80015a2:	4288      	cmp	r0, r1
 80015a4:	d103      	bne.n	80015ae <prvInsertBlockIntoFreeList+0x1e>
 80015a6:	6841      	ldr	r1, [r0, #4]
 80015a8:	4421      	add	r1, r4
 80015aa:	6059      	str	r1, [r3, #4]
 80015ac:	4618      	mov	r0, r3
 80015ae:	6844      	ldr	r4, [r0, #4]
 80015b0:	1901      	adds	r1, r0, r4
 80015b2:	428a      	cmp	r2, r1
 80015b4:	d10c      	bne.n	80015d0 <prvInsertBlockIntoFreeList+0x40>
 80015b6:	490a      	ldr	r1, [pc, #40]	; (80015e0 <prvInsertBlockIntoFreeList+0x50>)
 80015b8:	6809      	ldr	r1, [r1, #0]
 80015ba:	428a      	cmp	r2, r1
 80015bc:	d006      	beq.n	80015cc <prvInsertBlockIntoFreeList+0x3c>
 80015be:	6852      	ldr	r2, [r2, #4]
 80015c0:	4422      	add	r2, r4
 80015c2:	6042      	str	r2, [r0, #4]
 80015c4:	681a      	ldr	r2, [r3, #0]
 80015c6:	6812      	ldr	r2, [r2, #0]
 80015c8:	6002      	str	r2, [r0, #0]
 80015ca:	e002      	b.n	80015d2 <prvInsertBlockIntoFreeList+0x42>
 80015cc:	6001      	str	r1, [r0, #0]
 80015ce:	e000      	b.n	80015d2 <prvInsertBlockIntoFreeList+0x42>
 80015d0:	6002      	str	r2, [r0, #0]
 80015d2:	4298      	cmp	r0, r3
 80015d4:	d000      	beq.n	80015d8 <prvInsertBlockIntoFreeList+0x48>
 80015d6:	6018      	str	r0, [r3, #0]
 80015d8:	bc10      	pop	{r4}
 80015da:	4770      	bx	lr
 80015dc:	20000038 	.word	0x20000038
 80015e0:	20000034 	.word	0x20000034

080015e4 <pvPortMalloc>:
 80015e4:	b570      	push	{r4, r5, r6, lr}
 80015e6:	4604      	mov	r4, r0
 80015e8:	f000 fc02 	bl	8001df0 <vTaskSuspendAll>
 80015ec:	4b39      	ldr	r3, [pc, #228]	; (80016d4 <pvPortMalloc+0xf0>)
 80015ee:	681b      	ldr	r3, [r3, #0]
 80015f0:	b90b      	cbnz	r3, 80015f6 <pvPortMalloc+0x12>
 80015f2:	f7ff ff9b 	bl	800152c <prvHeapInit>
 80015f6:	4b38      	ldr	r3, [pc, #224]	; (80016d8 <pvPortMalloc+0xf4>)
 80015f8:	681b      	ldr	r3, [r3, #0]
 80015fa:	421c      	tst	r4, r3
 80015fc:	d153      	bne.n	80016a6 <pvPortMalloc+0xc2>
 80015fe:	b194      	cbz	r4, 8001626 <pvPortMalloc+0x42>
 8001600:	3408      	adds	r4, #8
 8001602:	f014 0f07 	tst.w	r4, #7
 8001606:	d00e      	beq.n	8001626 <pvPortMalloc+0x42>
 8001608:	f024 0407 	bic.w	r4, r4, #7
 800160c:	3408      	adds	r4, #8
 800160e:	f004 0307 	and.w	r3, r4, #7
 8001612:	b143      	cbz	r3, 8001626 <pvPortMalloc+0x42>
 8001614:	f04f 0350 	mov.w	r3, #80	; 0x50
 8001618:	f383 8811 	msr	BASEPRI, r3
 800161c:	f3bf 8f6f 	isb	sy
 8001620:	f3bf 8f4f 	dsb	sy
 8001624:	e7fe      	b.n	8001624 <pvPortMalloc+0x40>
 8001626:	2c00      	cmp	r4, #0
 8001628:	d03f      	beq.n	80016aa <pvPortMalloc+0xc6>
 800162a:	4b2c      	ldr	r3, [pc, #176]	; (80016dc <pvPortMalloc+0xf8>)
 800162c:	681b      	ldr	r3, [r3, #0]
 800162e:	429c      	cmp	r4, r3
 8001630:	d83d      	bhi.n	80016ae <pvPortMalloc+0xca>
 8001632:	4b2b      	ldr	r3, [pc, #172]	; (80016e0 <pvPortMalloc+0xfc>)
 8001634:	681d      	ldr	r5, [r3, #0]
 8001636:	e001      	b.n	800163c <pvPortMalloc+0x58>
 8001638:	462b      	mov	r3, r5
 800163a:	4615      	mov	r5, r2
 800163c:	686a      	ldr	r2, [r5, #4]
 800163e:	4294      	cmp	r4, r2
 8001640:	d902      	bls.n	8001648 <pvPortMalloc+0x64>
 8001642:	682a      	ldr	r2, [r5, #0]
 8001644:	2a00      	cmp	r2, #0
 8001646:	d1f7      	bne.n	8001638 <pvPortMalloc+0x54>
 8001648:	4a22      	ldr	r2, [pc, #136]	; (80016d4 <pvPortMalloc+0xf0>)
 800164a:	6812      	ldr	r2, [r2, #0]
 800164c:	4295      	cmp	r5, r2
 800164e:	d030      	beq.n	80016b2 <pvPortMalloc+0xce>
 8001650:	681e      	ldr	r6, [r3, #0]
 8001652:	3608      	adds	r6, #8
 8001654:	682a      	ldr	r2, [r5, #0]
 8001656:	601a      	str	r2, [r3, #0]
 8001658:	686b      	ldr	r3, [r5, #4]
 800165a:	1b1b      	subs	r3, r3, r4
 800165c:	2b10      	cmp	r3, #16
 800165e:	d910      	bls.n	8001682 <pvPortMalloc+0x9e>
 8001660:	1928      	adds	r0, r5, r4
 8001662:	f010 0f07 	tst.w	r0, #7
 8001666:	d008      	beq.n	800167a <pvPortMalloc+0x96>
 8001668:	f04f 0350 	mov.w	r3, #80	; 0x50
 800166c:	f383 8811 	msr	BASEPRI, r3
 8001670:	f3bf 8f6f 	isb	sy
 8001674:	f3bf 8f4f 	dsb	sy
 8001678:	e7fe      	b.n	8001678 <pvPortMalloc+0x94>
 800167a:	6043      	str	r3, [r0, #4]
 800167c:	606c      	str	r4, [r5, #4]
 800167e:	f7ff ff87 	bl	8001590 <prvInsertBlockIntoFreeList>
 8001682:	686a      	ldr	r2, [r5, #4]
 8001684:	4915      	ldr	r1, [pc, #84]	; (80016dc <pvPortMalloc+0xf8>)
 8001686:	680b      	ldr	r3, [r1, #0]
 8001688:	1a9b      	subs	r3, r3, r2
 800168a:	600b      	str	r3, [r1, #0]
 800168c:	4915      	ldr	r1, [pc, #84]	; (80016e4 <pvPortMalloc+0x100>)
 800168e:	6809      	ldr	r1, [r1, #0]
 8001690:	428b      	cmp	r3, r1
 8001692:	d201      	bcs.n	8001698 <pvPortMalloc+0xb4>
 8001694:	4913      	ldr	r1, [pc, #76]	; (80016e4 <pvPortMalloc+0x100>)
 8001696:	600b      	str	r3, [r1, #0]
 8001698:	4b0f      	ldr	r3, [pc, #60]	; (80016d8 <pvPortMalloc+0xf4>)
 800169a:	681b      	ldr	r3, [r3, #0]
 800169c:	431a      	orrs	r2, r3
 800169e:	606a      	str	r2, [r5, #4]
 80016a0:	2300      	movs	r3, #0
 80016a2:	602b      	str	r3, [r5, #0]
 80016a4:	e006      	b.n	80016b4 <pvPortMalloc+0xd0>
 80016a6:	2600      	movs	r6, #0
 80016a8:	e004      	b.n	80016b4 <pvPortMalloc+0xd0>
 80016aa:	2600      	movs	r6, #0
 80016ac:	e002      	b.n	80016b4 <pvPortMalloc+0xd0>
 80016ae:	2600      	movs	r6, #0
 80016b0:	e000      	b.n	80016b4 <pvPortMalloc+0xd0>
 80016b2:	2600      	movs	r6, #0
 80016b4:	f000 fc36 	bl	8001f24 <xTaskResumeAll>
 80016b8:	f016 0f07 	tst.w	r6, #7
 80016bc:	d008      	beq.n	80016d0 <pvPortMalloc+0xec>
 80016be:	f04f 0350 	mov.w	r3, #80	; 0x50
 80016c2:	f383 8811 	msr	BASEPRI, r3
 80016c6:	f3bf 8f6f 	isb	sy
 80016ca:	f3bf 8f4f 	dsb	sy
 80016ce:	e7fe      	b.n	80016ce <pvPortMalloc+0xea>
 80016d0:	4630      	mov	r0, r6
 80016d2:	bd70      	pop	{r4, r5, r6, pc}
 80016d4:	20000034 	.word	0x20000034
 80016d8:	20000c40 	.word	0x20000c40
 80016dc:	20000030 	.word	0x20000030
 80016e0:	20000038 	.word	0x20000038
 80016e4:	20000c44 	.word	0x20000c44

080016e8 <vPortFree>:
 80016e8:	b3a0      	cbz	r0, 8001754 <vPortFree+0x6c>
 80016ea:	b538      	push	{r3, r4, r5, lr}
 80016ec:	4603      	mov	r3, r0
 80016ee:	f1a0 0508 	sub.w	r5, r0, #8
 80016f2:	f850 2c04 	ldr.w	r2, [r0, #-4]
 80016f6:	4918      	ldr	r1, [pc, #96]	; (8001758 <vPortFree+0x70>)
 80016f8:	6809      	ldr	r1, [r1, #0]
 80016fa:	ea12 0401 	ands.w	r4, r2, r1
 80016fe:	d108      	bne.n	8001712 <vPortFree+0x2a>
 8001700:	f04f 0350 	mov.w	r3, #80	; 0x50
 8001704:	f383 8811 	msr	BASEPRI, r3
 8001708:	f3bf 8f6f 	isb	sy
 800170c:	f3bf 8f4f 	dsb	sy
 8001710:	e7fe      	b.n	8001710 <vPortFree+0x28>
 8001712:	f850 0c08 	ldr.w	r0, [r0, #-8]
 8001716:	b140      	cbz	r0, 800172a <vPortFree+0x42>
 8001718:	f04f 0350 	mov.w	r3, #80	; 0x50
 800171c:	f383 8811 	msr	BASEPRI, r3
 8001720:	f3bf 8f6f 	isb	sy
 8001724:	f3bf 8f4f 	dsb	sy
 8001728:	e7fe      	b.n	8001728 <vPortFree+0x40>
 800172a:	b194      	cbz	r4, 8001752 <vPortFree+0x6a>
 800172c:	b988      	cbnz	r0, 8001752 <vPortFree+0x6a>
 800172e:	461c      	mov	r4, r3
 8001730:	ea22 0201 	bic.w	r2, r2, r1
 8001734:	f843 2c04 	str.w	r2, [r3, #-4]
 8001738:	f000 fb5a 	bl	8001df0 <vTaskSuspendAll>
 800173c:	f854 3c04 	ldr.w	r3, [r4, #-4]
 8001740:	4a06      	ldr	r2, [pc, #24]	; (800175c <vPortFree+0x74>)
 8001742:	6811      	ldr	r1, [r2, #0]
 8001744:	440b      	add	r3, r1
 8001746:	6013      	str	r3, [r2, #0]
 8001748:	4628      	mov	r0, r5
 800174a:	f7ff ff21 	bl	8001590 <prvInsertBlockIntoFreeList>
 800174e:	f000 fbe9 	bl	8001f24 <xTaskResumeAll>
 8001752:	bd38      	pop	{r3, r4, r5, pc}
 8001754:	4770      	bx	lr
 8001756:	bf00      	nop
 8001758:	20000c40 	.word	0x20000c40
 800175c:	20000030 	.word	0x20000030

08001760 <prvTaskExitError>:
 8001760:	4b0b      	ldr	r3, [pc, #44]	; (8001790 <prvTaskExitError+0x30>)
 8001762:	681b      	ldr	r3, [r3, #0]
 8001764:	f1b3 3fff 	cmp.w	r3, #4294967295
 8001768:	d008      	beq.n	800177c <prvTaskExitError+0x1c>
 800176a:	f04f 0350 	mov.w	r3, #80	; 0x50
 800176e:	f383 8811 	msr	BASEPRI, r3
 8001772:	f3bf 8f6f 	isb	sy
 8001776:	f3bf 8f4f 	dsb	sy
 800177a:	e7fe      	b.n	800177a <prvTaskExitError+0x1a>
 800177c:	f04f 0350 	mov.w	r3, #80	; 0x50
 8001780:	f383 8811 	msr	BASEPRI, r3
 8001784:	f3bf 8f6f 	isb	sy
 8001788:	f3bf 8f4f 	dsb	sy
 800178c:	e7fe      	b.n	800178c <prvTaskExitError+0x2c>
 800178e:	bf00      	nop
 8001790:	20000008 	.word	0x20000008

08001794 <prvPortStartFirstTask>:
 8001794:	4806      	ldr	r0, [pc, #24]	; (80017b0 <prvPortStartFirstTask+0x1c>)
 8001796:	6800      	ldr	r0, [r0, #0]
 8001798:	6800      	ldr	r0, [r0, #0]
 800179a:	f380 8808 	msr	MSP, r0
 800179e:	b662      	cpsie	i
 80017a0:	b661      	cpsie	f
 80017a2:	f3bf 8f4f 	dsb	sy
 80017a6:	f3bf 8f6f 	isb	sy
 80017aa:	df00      	svc	0
 80017ac:	bf00      	nop
 80017ae:	0000      	.short	0x0000
 80017b0:	e000ed08 	.word	0xe000ed08

080017b4 <pxPortInitialiseStack>:
 80017b4:	f04f 7380 	mov.w	r3, #16777216	; 0x1000000
 80017b8:	f840 3c04 	str.w	r3, [r0, #-4]
 80017bc:	f021 0101 	bic.w	r1, r1, #1
 80017c0:	f840 1c08 	str.w	r1, [r0, #-8]
 80017c4:	4b03      	ldr	r3, [pc, #12]	; (80017d4 <pxPortInitialiseStack+0x20>)
 80017c6:	f840 3c0c 	str.w	r3, [r0, #-12]
 80017ca:	f840 2c20 	str.w	r2, [r0, #-32]
 80017ce:	3840      	subs	r0, #64	; 0x40
 80017d0:	4770      	bx	lr
 80017d2:	bf00      	nop
 80017d4:	08001761 	.word	0x08001761
	...

080017e0 <SVC_Handler>:
 80017e0:	4b07      	ldr	r3, [pc, #28]	; (8001800 <pxCurrentTCBConst2>)
 80017e2:	6819      	ldr	r1, [r3, #0]
 80017e4:	6808      	ldr	r0, [r1, #0]
 80017e6:	e8b0 0ff0 	ldmia.w	r0!, {r4, r5, r6, r7, r8, r9, sl, fp}
 80017ea:	f380 8809 	msr	PSP, r0
 80017ee:	f3bf 8f6f 	isb	sy
 80017f2:	f04f 0000 	mov.w	r0, #0
 80017f6:	f380 8811 	msr	BASEPRI, r0
 80017fa:	f04e 0e0d 	orr.w	lr, lr, #13
 80017fe:	4770      	bx	lr

08001800 <pxCurrentTCBConst2>:
 8001800:	20000d10 	.word	0x20000d10

08001804 <vPortEnterCritical>:
 8001804:	f04f 0350 	mov.w	r3, #80	; 0x50
 8001808:	f383 8811 	msr	BASEPRI, r3
 800180c:	f3bf 8f6f 	isb	sy
 8001810:	f3bf 8f4f 	dsb	sy
 8001814:	4a0a      	ldr	r2, [pc, #40]	; (8001840 <vPortEnterCritical+0x3c>)
 8001816:	6813      	ldr	r3, [r2, #0]
 8001818:	3301      	adds	r3, #1
 800181a:	6013      	str	r3, [r2, #0]
 800181c:	2b01      	cmp	r3, #1
 800181e:	d10d      	bne.n	800183c <vPortEnterCritical+0x38>
 8001820:	4b08      	ldr	r3, [pc, #32]	; (8001844 <vPortEnterCritical+0x40>)
 8001822:	681b      	ldr	r3, [r3, #0]
 8001824:	f013 0fff 	tst.w	r3, #255	; 0xff
 8001828:	d008      	beq.n	800183c <vPortEnterCritical+0x38>
 800182a:	f04f 0350 	mov.w	r3, #80	; 0x50
 800182e:	f383 8811 	msr	BASEPRI, r3
 8001832:	f3bf 8f6f 	isb	sy
 8001836:	f3bf 8f4f 	dsb	sy
 800183a:	e7fe      	b.n	800183a <vPortEnterCritical+0x36>
 800183c:	4770      	bx	lr
 800183e:	bf00      	nop
 8001840:	20000008 	.word	0x20000008
 8001844:	e000ed04 	.word	0xe000ed04

08001848 <vPortExitCritical>:
 8001848:	4b09      	ldr	r3, [pc, #36]	; (8001870 <vPortExitCritical+0x28>)
 800184a:	681b      	ldr	r3, [r3, #0]
 800184c:	b943      	cbnz	r3, 8001860 <vPortExitCritical+0x18>
 800184e:	f04f 0350 	mov.w	r3, #80	; 0x50
 8001852:	f383 8811 	msr	BASEPRI, r3
 8001856:	f3bf 8f6f 	isb	sy
 800185a:	f3bf 8f4f 	dsb	sy
 800185e:	e7fe      	b.n	800185e <vPortExitCritical+0x16>
 8001860:	3b01      	subs	r3, #1
 8001862:	4a03      	ldr	r2, [pc, #12]	; (8001870 <vPortExitCritical+0x28>)
 8001864:	6013      	str	r3, [r2, #0]
 8001866:	b90b      	cbnz	r3, 800186c <vPortExitCritical+0x24>
 8001868:	f383 8811 	msr	BASEPRI, r3
 800186c:	4770      	bx	lr
 800186e:	bf00      	nop
 8001870:	20000008 	.word	0x20000008
	...

08001880 <PendSV_Handler>:
 8001880:	f3ef 8009 	mrs	r0, PSP
 8001884:	f3bf 8f6f 	isb	sy
 8001888:	4b0d      	ldr	r3, [pc, #52]	; (80018c0 <pxCurrentTCBConst>)
 800188a:	681a      	ldr	r2, [r3, #0]
 800188c:	e920 0ff0 	stmdb	r0!, {r4, r5, r6, r7, r8, r9, sl, fp}
 8001890:	6010      	str	r0, [r2, #0]
 8001892:	e92d 4008 	stmdb	sp!, {r3, lr}
 8001896:	f04f 0050 	mov.w	r0, #80	; 0x50
 800189a:	f380 8811 	msr	BASEPRI, r0
 800189e:	f000 fc23 	bl	80020e8 <vTaskSwitchContext>
 80018a2:	f04f 0000 	mov.w	r0, #0
 80018a6:	f380 8811 	msr	BASEPRI, r0
 80018aa:	e8bd 4008 	ldmia.w	sp!, {r3, lr}
 80018ae:	6819      	ldr	r1, [r3, #0]
 80018b0:	6808      	ldr	r0, [r1, #0]
 80018b2:	e8b0 0ff0 	ldmia.w	r0!, {r4, r5, r6, r7, r8, r9, sl, fp}
 80018b6:	f380 8809 	msr	PSP, r0
 80018ba:	f3bf 8f6f 	isb	sy
 80018be:	4770      	bx	lr

080018c0 <pxCurrentTCBConst>:
 80018c0:	20000d10 	.word	0x20000d10

080018c4 <xPortSysTickHandler>:
 80018c4:	b508      	push	{r3, lr}
 80018c6:	f04f 0350 	mov.w	r3, #80	; 0x50
 80018ca:	f383 8811 	msr	BASEPRI, r3
 80018ce:	f3bf 8f6f 	isb	sy
 80018d2:	f3bf 8f4f 	dsb	sy
 80018d6:	f000 fa93 	bl	8001e00 <xTaskIncrementTick>
 80018da:	b118      	cbz	r0, 80018e4 <xPortSysTickHandler+0x20>
 80018dc:	f04f 5280 	mov.w	r2, #268435456	; 0x10000000
 80018e0:	4b02      	ldr	r3, [pc, #8]	; (80018ec <xPortSysTickHandler+0x28>)
 80018e2:	601a      	str	r2, [r3, #0]
 80018e4:	2300      	movs	r3, #0
 80018e6:	f383 8811 	msr	BASEPRI, r3
 80018ea:	bd08      	pop	{r3, pc}
 80018ec:	e000ed04 	.word	0xe000ed04

080018f0 <vPortSetupTimerInterrupt>:
 80018f0:	4b06      	ldr	r3, [pc, #24]	; (800190c <vPortSetupTimerInterrupt+0x1c>)
 80018f2:	681b      	ldr	r3, [r3, #0]
 80018f4:	4a06      	ldr	r2, [pc, #24]	; (8001910 <vPortSetupTimerInterrupt+0x20>)
 80018f6:	fba2 2303 	umull	r2, r3, r2, r3
 80018fa:	099b      	lsrs	r3, r3, #6
 80018fc:	3b01      	subs	r3, #1
 80018fe:	4a05      	ldr	r2, [pc, #20]	; (8001914 <vPortSetupTimerInterrupt+0x24>)
 8001900:	6013      	str	r3, [r2, #0]
 8001902:	2207      	movs	r2, #7
 8001904:	4b04      	ldr	r3, [pc, #16]	; (8001918 <vPortSetupTimerInterrupt+0x28>)
 8001906:	601a      	str	r2, [r3, #0]
 8001908:	4770      	bx	lr
 800190a:	bf00      	nop
 800190c:	20000004 	.word	0x20000004
 8001910:	10624dd3 	.word	0x10624dd3
 8001914:	e000e014 	.word	0xe000e014
 8001918:	e000e010 	.word	0xe000e010

0800191c <xPortStartScheduler>:
 800191c:	b500      	push	{lr}
 800191e:	b083      	sub	sp, #12
 8001920:	4b1f      	ldr	r3, [pc, #124]	; (80019a0 <xPortStartScheduler+0x84>)
 8001922:	781a      	ldrb	r2, [r3, #0]
 8001924:	b2d2      	uxtb	r2, r2
 8001926:	9201      	str	r2, [sp, #4]
 8001928:	22ff      	movs	r2, #255	; 0xff
 800192a:	701a      	strb	r2, [r3, #0]
 800192c:	781b      	ldrb	r3, [r3, #0]
 800192e:	b2db      	uxtb	r3, r3
 8001930:	f88d 3003 	strb.w	r3, [sp, #3]
 8001934:	f89d 3003 	ldrb.w	r3, [sp, #3]
 8001938:	f003 0350 	and.w	r3, r3, #80	; 0x50
 800193c:	4a19      	ldr	r2, [pc, #100]	; (80019a4 <xPortStartScheduler+0x88>)
 800193e:	7013      	strb	r3, [r2, #0]
 8001940:	2207      	movs	r2, #7
 8001942:	4b19      	ldr	r3, [pc, #100]	; (80019a8 <xPortStartScheduler+0x8c>)
 8001944:	601a      	str	r2, [r3, #0]
 8001946:	e009      	b.n	800195c <xPortStartScheduler+0x40>
 8001948:	4a17      	ldr	r2, [pc, #92]	; (80019a8 <xPortStartScheduler+0x8c>)
 800194a:	6813      	ldr	r3, [r2, #0]
 800194c:	3b01      	subs	r3, #1
 800194e:	6013      	str	r3, [r2, #0]
 8001950:	f89d 3003 	ldrb.w	r3, [sp, #3]
 8001954:	005b      	lsls	r3, r3, #1
 8001956:	b2db      	uxtb	r3, r3
 8001958:	f88d 3003 	strb.w	r3, [sp, #3]
 800195c:	f89d 3003 	ldrb.w	r3, [sp, #3]
 8001960:	f013 0f80 	tst.w	r3, #128	; 0x80
 8001964:	d1f0      	bne.n	8001948 <xPortStartScheduler+0x2c>
 8001966:	4a10      	ldr	r2, [pc, #64]	; (80019a8 <xPortStartScheduler+0x8c>)
 8001968:	6813      	ldr	r3, [r2, #0]
 800196a:	021b      	lsls	r3, r3, #8
 800196c:	f403 63e0 	and.w	r3, r3, #1792	; 0x700
 8001970:	6013      	str	r3, [r2, #0]
 8001972:	9b01      	ldr	r3, [sp, #4]
 8001974:	b2db      	uxtb	r3, r3
 8001976:	4a0a      	ldr	r2, [pc, #40]	; (80019a0 <xPortStartScheduler+0x84>)
 8001978:	7013      	strb	r3, [r2, #0]
 800197a:	4b0c      	ldr	r3, [pc, #48]	; (80019ac <xPortStartScheduler+0x90>)
 800197c:	681a      	ldr	r2, [r3, #0]
 800197e:	f442 0270 	orr.w	r2, r2, #15728640	; 0xf00000
 8001982:	601a      	str	r2, [r3, #0]
 8001984:	681a      	ldr	r2, [r3, #0]
 8001986:	f042 4270 	orr.w	r2, r2, #4026531840	; 0xf0000000
 800198a:	601a      	str	r2, [r3, #0]
 800198c:	f7ff ffb0 	bl	80018f0 <vPortSetupTimerInterrupt>
 8001990:	2200      	movs	r2, #0
 8001992:	4b07      	ldr	r3, [pc, #28]	; (80019b0 <xPortStartScheduler+0x94>)
 8001994:	601a      	str	r2, [r3, #0]
 8001996:	f7ff fefd 	bl	8001794 <prvPortStartFirstTask>
 800199a:	f7ff fee1 	bl	8001760 <prvTaskExitError>
 800199e:	bf00      	nop
 80019a0:	e000e400 	.word	0xe000e400
 80019a4:	20000c48 	.word	0x20000c48
 80019a8:	20000c4c 	.word	0x20000c4c
 80019ac:	e000ed20 	.word	0xe000ed20
 80019b0:	20000008 	.word	0x20000008

080019b4 <vPortValidateInterruptPriority>:
 80019b4:	f3ef 8305 	mrs	r3, IPSR
 80019b8:	2b0f      	cmp	r3, #15
 80019ba:	d90f      	bls.n	80019dc <vPortValidateInterruptPriority+0x28>
 80019bc:	4a10      	ldr	r2, [pc, #64]	; (8001a00 <vPortValidateInterruptPriority+0x4c>)
 80019be:	5c9b      	ldrb	r3, [r3, r2]
 80019c0:	b2db      	uxtb	r3, r3
 80019c2:	4a10      	ldr	r2, [pc, #64]	; (8001a04 <vPortValidateInterruptPriority+0x50>)
 80019c4:	7812      	ldrb	r2, [r2, #0]
 80019c6:	4293      	cmp	r3, r2
 80019c8:	d208      	bcs.n	80019dc <vPortValidateInterruptPriority+0x28>
 80019ca:	f04f 0350 	mov.w	r3, #80	; 0x50
 80019ce:	f383 8811 	msr	BASEPRI, r3
 80019d2:	f3bf 8f6f 	isb	sy
 80019d6:	f3bf 8f4f 	dsb	sy
 80019da:	e7fe      	b.n	80019da <vPortValidateInterruptPriority+0x26>
 80019dc:	4b0a      	ldr	r3, [pc, #40]	; (8001a08 <vPortValidateInterruptPriority+0x54>)
 80019de:	681b      	ldr	r3, [r3, #0]
 80019e0:	f403 63e0 	and.w	r3, r3, #1792	; 0x700
 80019e4:	4a09      	ldr	r2, [pc, #36]	; (8001a0c <vPortValidateInterruptPriority+0x58>)
 80019e6:	6812      	ldr	r2, [r2, #0]
 80019e8:	4293      	cmp	r3, r2
 80019ea:	d908      	bls.n	80019fe <vPortValidateInterruptPriority+0x4a>
 80019ec:	f04f 0350 	mov.w	r3, #80	; 0x50
 80019f0:	f383 8811 	msr	BASEPRI, r3
 80019f4:	f3bf 8f6f 	isb	sy
 80019f8:	f3bf 8f4f 	dsb	sy
 80019fc:	e7fe      	b.n	80019fc <vPortValidateInterruptPriority+0x48>
 80019fe:	4770      	bx	lr
 8001a00:	e000e3f0 	.word	0xe000e3f0
 8001a04:	20000c48 	.word	0x20000c48
 8001a08:	e000ed0c 	.word	0xe000ed0c
 8001a0c:	20000c4c 	.word	0x20000c4c

08001a10 <vListInitialise>:
 8001a10:	f100 0308 	add.w	r3, r0, #8
 8001a14:	6043      	str	r3, [r0, #4]
 8001a16:	f04f 32ff 	mov.w	r2, #4294967295
 8001a1a:	6082      	str	r2, [r0, #8]
 8001a1c:	60c3      	str	r3, [r0, #12]
 8001a1e:	6103      	str	r3, [r0, #16]
 8001a20:	2300      	movs	r3, #0
 8001a22:	6003      	str	r3, [r0, #0]
 8001a24:	4770      	bx	lr
 8001a26:	bf00      	nop

08001a28 <vListInitialiseItem>:
 8001a28:	2300      	movs	r3, #0
 8001a2a:	6103      	str	r3, [r0, #16]
 8001a2c:	4770      	bx	lr
 8001a2e:	bf00      	nop

08001a30 <vListInsertEnd>:
 8001a30:	6843      	ldr	r3, [r0, #4]
 8001a32:	604b      	str	r3, [r1, #4]
 8001a34:	689a      	ldr	r2, [r3, #8]
 8001a36:	608a      	str	r2, [r1, #8]
 8001a38:	689a      	ldr	r2, [r3, #8]
 8001a3a:	6051      	str	r1, [r2, #4]
 8001a3c:	6099      	str	r1, [r3, #8]
 8001a3e:	6108      	str	r0, [r1, #16]
 8001a40:	6803      	ldr	r3, [r0, #0]
 8001a42:	3301      	adds	r3, #1
 8001a44:	6003      	str	r3, [r0, #0]
 8001a46:	4770      	bx	lr

08001a48 <vListInsert>:
 8001a48:	b430      	push	{r4, r5}
 8001a4a:	680d      	ldr	r5, [r1, #0]
 8001a4c:	f1b5 3fff 	cmp.w	r5, #4294967295
 8001a50:	d101      	bne.n	8001a56 <vListInsert+0xe>
 8001a52:	6902      	ldr	r2, [r0, #16]
 8001a54:	e007      	b.n	8001a66 <vListInsert+0x1e>
 8001a56:	f100 0208 	add.w	r2, r0, #8
 8001a5a:	e000      	b.n	8001a5e <vListInsert+0x16>
 8001a5c:	461a      	mov	r2, r3
 8001a5e:	6853      	ldr	r3, [r2, #4]
 8001a60:	681c      	ldr	r4, [r3, #0]
 8001a62:	42a5      	cmp	r5, r4
 8001a64:	d2fa      	bcs.n	8001a5c <vListInsert+0x14>
 8001a66:	6853      	ldr	r3, [r2, #4]
 8001a68:	604b      	str	r3, [r1, #4]
 8001a6a:	6099      	str	r1, [r3, #8]
 8001a6c:	608a      	str	r2, [r1, #8]
 8001a6e:	6051      	str	r1, [r2, #4]
 8001a70:	6108      	str	r0, [r1, #16]
 8001a72:	6803      	ldr	r3, [r0, #0]
 8001a74:	3301      	adds	r3, #1
 8001a76:	6003      	str	r3, [r0, #0]
 8001a78:	bc30      	pop	{r4, r5}
 8001a7a:	4770      	bx	lr

08001a7c <uxListRemove>:
 8001a7c:	6903      	ldr	r3, [r0, #16]
 8001a7e:	6842      	ldr	r2, [r0, #4]
 8001a80:	6881      	ldr	r1, [r0, #8]
 8001a82:	6091      	str	r1, [r2, #8]
 8001a84:	6882      	ldr	r2, [r0, #8]
 8001a86:	6841      	ldr	r1, [r0, #4]
 8001a88:	6051      	str	r1, [r2, #4]
 8001a8a:	685a      	ldr	r2, [r3, #4]
 8001a8c:	4290      	cmp	r0, r2
 8001a8e:	d101      	bne.n	8001a94 <uxListRemove+0x18>
 8001a90:	6882      	ldr	r2, [r0, #8]
 8001a92:	605a      	str	r2, [r3, #4]
 8001a94:	2200      	movs	r2, #0
 8001a96:	6102      	str	r2, [r0, #16]
 8001a98:	6818      	ldr	r0, [r3, #0]
 8001a9a:	3801      	subs	r0, #1
 8001a9c:	6018      	str	r0, [r3, #0]
 8001a9e:	4770      	bx	lr

08001aa0 <prvResetNextTaskUnblockTime>:
 8001aa0:	4b0a      	ldr	r3, [pc, #40]	; (8001acc <prvResetNextTaskUnblockTime+0x2c>)
 8001aa2:	681b      	ldr	r3, [r3, #0]
 8001aa4:	681b      	ldr	r3, [r3, #0]
 8001aa6:	b90b      	cbnz	r3, 8001aac <prvResetNextTaskUnblockTime+0xc>
 8001aa8:	2301      	movs	r3, #1
 8001aaa:	e000      	b.n	8001aae <prvResetNextTaskUnblockTime+0xe>
 8001aac:	2300      	movs	r3, #0
 8001aae:	b123      	cbz	r3, 8001aba <prvResetNextTaskUnblockTime+0x1a>
 8001ab0:	f04f 32ff 	mov.w	r2, #4294967295
 8001ab4:	4b06      	ldr	r3, [pc, #24]	; (8001ad0 <prvResetNextTaskUnblockTime+0x30>)
 8001ab6:	601a      	str	r2, [r3, #0]
 8001ab8:	4770      	bx	lr
 8001aba:	4b04      	ldr	r3, [pc, #16]	; (8001acc <prvResetNextTaskUnblockTime+0x2c>)
 8001abc:	681b      	ldr	r3, [r3, #0]
 8001abe:	68db      	ldr	r3, [r3, #12]
 8001ac0:	68db      	ldr	r3, [r3, #12]
 8001ac2:	685a      	ldr	r2, [r3, #4]
 8001ac4:	4b02      	ldr	r3, [pc, #8]	; (8001ad0 <prvResetNextTaskUnblockTime+0x30>)
 8001ac6:	601a      	str	r2, [r3, #0]
 8001ac8:	4770      	bx	lr
 8001aca:	bf00      	nop
 8001acc:	20000c54 	.word	0x20000c54
 8001ad0:	20000d30 	.word	0x20000d30

08001ad4 <prvDeleteTCB>:
 8001ad4:	b510      	push	{r4, lr}
 8001ad6:	4604      	mov	r4, r0
 8001ad8:	6b00      	ldr	r0, [r0, #48]	; 0x30
 8001ada:	f7ff fe05 	bl	80016e8 <vPortFree>
 8001ade:	4620      	mov	r0, r4
 8001ae0:	f7ff fe02 	bl	80016e8 <vPortFree>
 8001ae4:	bd10      	pop	{r4, pc}
 8001ae6:	bf00      	nop

08001ae8 <prvInitialiseNewTask>:
 8001ae8:	e92d 47f0 	stmdb	sp!, {r4, r5, r6, r7, r8, r9, sl, lr}
 8001aec:	4680      	mov	r8, r0
 8001aee:	4699      	mov	r9, r3
 8001af0:	9d08      	ldr	r5, [sp, #32]
 8001af2:	9f09      	ldr	r7, [sp, #36]	; 0x24
 8001af4:	9c0a      	ldr	r4, [sp, #40]	; 0x28
 8001af6:	6b23      	ldr	r3, [r4, #48]	; 0x30
 8001af8:	f102 4280 	add.w	r2, r2, #1073741824	; 0x40000000
 8001afc:	3a01      	subs	r2, #1
 8001afe:	eb03 0682 	add.w	r6, r3, r2, lsl #2
 8001b02:	f026 0607 	bic.w	r6, r6, #7
 8001b06:	2300      	movs	r3, #0
 8001b08:	e006      	b.n	8001b18 <prvInitialiseNewTask+0x30>
 8001b0a:	5cc8      	ldrb	r0, [r1, r3]
 8001b0c:	18e2      	adds	r2, r4, r3
 8001b0e:	f882 0034 	strb.w	r0, [r2, #52]	; 0x34
 8001b12:	5cca      	ldrb	r2, [r1, r3]
 8001b14:	b112      	cbz	r2, 8001b1c <prvInitialiseNewTask+0x34>
 8001b16:	3301      	adds	r3, #1
 8001b18:	2b0f      	cmp	r3, #15
 8001b1a:	d9f6      	bls.n	8001b0a <prvInitialiseNewTask+0x22>
 8001b1c:	2300      	movs	r3, #0
 8001b1e:	f884 3043 	strb.w	r3, [r4, #67]	; 0x43
 8001b22:	2d06      	cmp	r5, #6
 8001b24:	d900      	bls.n	8001b28 <prvInitialiseNewTask+0x40>
 8001b26:	2506      	movs	r5, #6
 8001b28:	62e5      	str	r5, [r4, #44]	; 0x2c
 8001b2a:	6465      	str	r5, [r4, #68]	; 0x44
 8001b2c:	f04f 0a00 	mov.w	sl, #0
 8001b30:	f8c4 a048 	str.w	sl, [r4, #72]	; 0x48
 8001b34:	1d20      	adds	r0, r4, #4
 8001b36:	f7ff ff77 	bl	8001a28 <vListInitialiseItem>
 8001b3a:	f104 0018 	add.w	r0, r4, #24
 8001b3e:	f7ff ff73 	bl	8001a28 <vListInitialiseItem>
 8001b42:	6124      	str	r4, [r4, #16]
 8001b44:	f1c5 0507 	rsb	r5, r5, #7
 8001b48:	61a5      	str	r5, [r4, #24]
 8001b4a:	6264      	str	r4, [r4, #36]	; 0x24
 8001b4c:	f8c4 a04c 	str.w	sl, [r4, #76]	; 0x4c
 8001b50:	f884 a050 	strb.w	sl, [r4, #80]	; 0x50
 8001b54:	464a      	mov	r2, r9
 8001b56:	4641      	mov	r1, r8
 8001b58:	4630      	mov	r0, r6
 8001b5a:	f7ff fe2b 	bl	80017b4 <pxPortInitialiseStack>
 8001b5e:	6020      	str	r0, [r4, #0]
 8001b60:	b107      	cbz	r7, 8001b64 <prvInitialiseNewTask+0x7c>
 8001b62:	603c      	str	r4, [r7, #0]
 8001b64:	e8bd 87f0 	ldmia.w	sp!, {r4, r5, r6, r7, r8, r9, sl, pc}

08001b68 <prvInitialiseTaskLists>:
 8001b68:	b538      	push	{r3, r4, r5, lr}
 8001b6a:	2400      	movs	r4, #0
 8001b6c:	e007      	b.n	8001b7e <prvInitialiseTaskLists+0x16>
 8001b6e:	eb04 0284 	add.w	r2, r4, r4, lsl #2
 8001b72:	0093      	lsls	r3, r2, #2
 8001b74:	480e      	ldr	r0, [pc, #56]	; (8001bb0 <prvInitialiseTaskLists+0x48>)
 8001b76:	4418      	add	r0, r3
 8001b78:	f7ff ff4a 	bl	8001a10 <vListInitialise>
 8001b7c:	3401      	adds	r4, #1
 8001b7e:	2c06      	cmp	r4, #6
 8001b80:	d9f5      	bls.n	8001b6e <prvInitialiseTaskLists+0x6>
 8001b82:	4d0c      	ldr	r5, [pc, #48]	; (8001bb4 <prvInitialiseTaskLists+0x4c>)
 8001b84:	4628      	mov	r0, r5
 8001b86:	f7ff ff43 	bl	8001a10 <vListInitialise>
 8001b8a:	4c0b      	ldr	r4, [pc, #44]	; (8001bb8 <prvInitialiseTaskLists+0x50>)
 8001b8c:	4620      	mov	r0, r4
 8001b8e:	f7ff ff3f 	bl	8001a10 <vListInitialise>
 8001b92:	480a      	ldr	r0, [pc, #40]	; (8001bbc <prvInitialiseTaskLists+0x54>)
 8001b94:	f7ff ff3c 	bl	8001a10 <vListInitialise>
 8001b98:	4809      	ldr	r0, [pc, #36]	; (8001bc0 <prvInitialiseTaskLists+0x58>)
 8001b9a:	f7ff ff39 	bl	8001a10 <vListInitialise>
 8001b9e:	4809      	ldr	r0, [pc, #36]	; (8001bc4 <prvInitialiseTaskLists+0x5c>)
 8001ba0:	f7ff ff36 	bl	8001a10 <vListInitialise>
 8001ba4:	4b08      	ldr	r3, [pc, #32]	; (8001bc8 <prvInitialiseTaskLists+0x60>)
 8001ba6:	601d      	str	r5, [r3, #0]
 8001ba8:	4b08      	ldr	r3, [pc, #32]	; (8001bcc <prvInitialiseTaskLists+0x64>)
 8001baa:	601c      	str	r4, [r3, #0]
 8001bac:	bd38      	pop	{r3, r4, r5, pc}
 8001bae:	bf00      	nop
 8001bb0:	20000c78 	.word	0x20000c78
 8001bb4:	20000d38 	.word	0x20000d38
 8001bb8:	20000d4c 	.word	0x20000d4c
 8001bbc:	20000d14 	.word	0x20000d14
 8001bc0:	20000c5c 	.word	0x20000c5c
 8001bc4:	20000d60 	.word	0x20000d60
 8001bc8:	20000c54 	.word	0x20000c54
 8001bcc:	20000c70 	.word	0x20000c70

08001bd0 <prvAddNewTaskToReadyList>:
 8001bd0:	b510      	push	{r4, lr}
 8001bd2:	4604      	mov	r4, r0
 8001bd4:	f7ff fe16 	bl	8001804 <vPortEnterCritical>
 8001bd8:	4a20      	ldr	r2, [pc, #128]	; (8001c5c <prvAddNewTaskToReadyList+0x8c>)
 8001bda:	6813      	ldr	r3, [r2, #0]
 8001bdc:	3301      	adds	r3, #1
 8001bde:	6013      	str	r3, [r2, #0]
 8001be0:	4b1f      	ldr	r3, [pc, #124]	; (8001c60 <prvAddNewTaskToReadyList+0x90>)
 8001be2:	681b      	ldr	r3, [r3, #0]
 8001be4:	b93b      	cbnz	r3, 8001bf6 <prvAddNewTaskToReadyList+0x26>
 8001be6:	4b1e      	ldr	r3, [pc, #120]	; (8001c60 <prvAddNewTaskToReadyList+0x90>)
 8001be8:	601c      	str	r4, [r3, #0]
 8001bea:	6813      	ldr	r3, [r2, #0]
 8001bec:	2b01      	cmp	r3, #1
 8001bee:	d10d      	bne.n	8001c0c <prvAddNewTaskToReadyList+0x3c>
 8001bf0:	f7ff ffba 	bl	8001b68 <prvInitialiseTaskLists>
 8001bf4:	e00a      	b.n	8001c0c <prvAddNewTaskToReadyList+0x3c>
 8001bf6:	4b1b      	ldr	r3, [pc, #108]	; (8001c64 <prvAddNewTaskToReadyList+0x94>)
 8001bf8:	681b      	ldr	r3, [r3, #0]
 8001bfa:	b93b      	cbnz	r3, 8001c0c <prvAddNewTaskToReadyList+0x3c>
 8001bfc:	4b18      	ldr	r3, [pc, #96]	; (8001c60 <prvAddNewTaskToReadyList+0x90>)
 8001bfe:	681b      	ldr	r3, [r3, #0]
 8001c00:	6ada      	ldr	r2, [r3, #44]	; 0x2c
 8001c02:	6ae3      	ldr	r3, [r4, #44]	; 0x2c
 8001c04:	429a      	cmp	r2, r3
 8001c06:	d801      	bhi.n	8001c0c <prvAddNewTaskToReadyList+0x3c>
 8001c08:	4b15      	ldr	r3, [pc, #84]	; (8001c60 <prvAddNewTaskToReadyList+0x90>)
 8001c0a:	601c      	str	r4, [r3, #0]
 8001c0c:	4a16      	ldr	r2, [pc, #88]	; (8001c68 <prvAddNewTaskToReadyList+0x98>)
 8001c0e:	6813      	ldr	r3, [r2, #0]
 8001c10:	3301      	adds	r3, #1
 8001c12:	6013      	str	r3, [r2, #0]
 8001c14:	6ae3      	ldr	r3, [r4, #44]	; 0x2c
 8001c16:	2201      	movs	r2, #1
 8001c18:	fa02 f103 	lsl.w	r1, r2, r3
 8001c1c:	4813      	ldr	r0, [pc, #76]	; (8001c6c <prvAddNewTaskToReadyList+0x9c>)
 8001c1e:	6802      	ldr	r2, [r0, #0]
 8001c20:	430a      	orrs	r2, r1
 8001c22:	6002      	str	r2, [r0, #0]
 8001c24:	eb03 0383 	add.w	r3, r3, r3, lsl #2
 8001c28:	009a      	lsls	r2, r3, #2
 8001c2a:	1d21      	adds	r1, r4, #4
 8001c2c:	4810      	ldr	r0, [pc, #64]	; (8001c70 <prvAddNewTaskToReadyList+0xa0>)
 8001c2e:	4410      	add	r0, r2
 8001c30:	f7ff fefe 	bl	8001a30 <vListInsertEnd>
 8001c34:	f7ff fe08 	bl	8001848 <vPortExitCritical>
 8001c38:	4b0a      	ldr	r3, [pc, #40]	; (8001c64 <prvAddNewTaskToReadyList+0x94>)
 8001c3a:	681b      	ldr	r3, [r3, #0]
 8001c3c:	b16b      	cbz	r3, 8001c5a <prvAddNewTaskToReadyList+0x8a>
 8001c3e:	4b08      	ldr	r3, [pc, #32]	; (8001c60 <prvAddNewTaskToReadyList+0x90>)
 8001c40:	681b      	ldr	r3, [r3, #0]
 8001c42:	6ada      	ldr	r2, [r3, #44]	; 0x2c
 8001c44:	6ae3      	ldr	r3, [r4, #44]	; 0x2c
 8001c46:	429a      	cmp	r2, r3
 8001c48:	d207      	bcs.n	8001c5a <prvAddNewTaskToReadyList+0x8a>
 8001c4a:	f04f 5280 	mov.w	r2, #268435456	; 0x10000000
 8001c4e:	4b09      	ldr	r3, [pc, #36]	; (8001c74 <prvAddNewTaskToReadyList+0xa4>)
 8001c50:	601a      	str	r2, [r3, #0]
 8001c52:	f3bf 8f4f 	dsb	sy
 8001c56:	f3bf 8f6f 	isb	sy
 8001c5a:	bd10      	pop	{r4, pc}
 8001c5c:	20000d0c 	.word	0x20000d0c
 8001c60:	20000d10 	.word	0x20000d10
 8001c64:	20000c58 	.word	0x20000c58
 8001c68:	20000d34 	.word	0x20000d34
 8001c6c:	20000d74 	.word	0x20000d74
 8001c70:	20000c78 	.word	0x20000c78
 8001c74:	e000ed04 	.word	0xe000ed04

08001c78 <prvAddCurrentTaskToDelayedList>:
 8001c78:	b570      	push	{r4, r5, r6, lr}
 8001c7a:	4604      	mov	r4, r0
 8001c7c:	460e      	mov	r6, r1
 8001c7e:	4b1d      	ldr	r3, [pc, #116]	; (8001cf4 <prvAddCurrentTaskToDelayedList+0x7c>)
 8001c80:	681d      	ldr	r5, [r3, #0]
 8001c82:	4b1d      	ldr	r3, [pc, #116]	; (8001cf8 <prvAddCurrentTaskToDelayedList+0x80>)
 8001c84:	6818      	ldr	r0, [r3, #0]
 8001c86:	3004      	adds	r0, #4
 8001c88:	f7ff fef8 	bl	8001a7c <uxListRemove>
 8001c8c:	b950      	cbnz	r0, 8001ca4 <prvAddCurrentTaskToDelayedList+0x2c>
 8001c8e:	4b1a      	ldr	r3, [pc, #104]	; (8001cf8 <prvAddCurrentTaskToDelayedList+0x80>)
 8001c90:	681b      	ldr	r3, [r3, #0]
 8001c92:	6ada      	ldr	r2, [r3, #44]	; 0x2c
 8001c94:	2301      	movs	r3, #1
 8001c96:	fa03 f202 	lsl.w	r2, r3, r2
 8001c9a:	4918      	ldr	r1, [pc, #96]	; (8001cfc <prvAddCurrentTaskToDelayedList+0x84>)
 8001c9c:	680b      	ldr	r3, [r1, #0]
 8001c9e:	ea23 0302 	bic.w	r3, r3, r2
 8001ca2:	600b      	str	r3, [r1, #0]
 8001ca4:	f1b4 3fff 	cmp.w	r4, #4294967295
 8001ca8:	d107      	bne.n	8001cba <prvAddCurrentTaskToDelayedList+0x42>
 8001caa:	b136      	cbz	r6, 8001cba <prvAddCurrentTaskToDelayedList+0x42>
 8001cac:	4b12      	ldr	r3, [pc, #72]	; (8001cf8 <prvAddCurrentTaskToDelayedList+0x80>)
 8001cae:	6819      	ldr	r1, [r3, #0]
 8001cb0:	3104      	adds	r1, #4
 8001cb2:	4813      	ldr	r0, [pc, #76]	; (8001d00 <prvAddCurrentTaskToDelayedList+0x88>)
 8001cb4:	f7ff febc 	bl	8001a30 <vListInsertEnd>
 8001cb8:	bd70      	pop	{r4, r5, r6, pc}
 8001cba:	442c      	add	r4, r5
 8001cbc:	4b0e      	ldr	r3, [pc, #56]	; (8001cf8 <prvAddCurrentTaskToDelayedList+0x80>)
 8001cbe:	681b      	ldr	r3, [r3, #0]
 8001cc0:	605c      	str	r4, [r3, #4]
 8001cc2:	42a5      	cmp	r5, r4
 8001cc4:	d907      	bls.n	8001cd6 <prvAddCurrentTaskToDelayedList+0x5e>
 8001cc6:	4b0f      	ldr	r3, [pc, #60]	; (8001d04 <prvAddCurrentTaskToDelayedList+0x8c>)
 8001cc8:	6818      	ldr	r0, [r3, #0]
 8001cca:	4b0b      	ldr	r3, [pc, #44]	; (8001cf8 <prvAddCurrentTaskToDelayedList+0x80>)
 8001ccc:	6819      	ldr	r1, [r3, #0]
 8001cce:	3104      	adds	r1, #4
 8001cd0:	f7ff feba 	bl	8001a48 <vListInsert>
 8001cd4:	bd70      	pop	{r4, r5, r6, pc}
 8001cd6:	4b0c      	ldr	r3, [pc, #48]	; (8001d08 <prvAddCurrentTaskToDelayedList+0x90>)
 8001cd8:	6818      	ldr	r0, [r3, #0]
 8001cda:	4b07      	ldr	r3, [pc, #28]	; (8001cf8 <prvAddCurrentTaskToDelayedList+0x80>)
 8001cdc:	6819      	ldr	r1, [r3, #0]
 8001cde:	3104      	adds	r1, #4
 8001ce0:	f7ff feb2 	bl	8001a48 <vListInsert>
 8001ce4:	4b09      	ldr	r3, [pc, #36]	; (8001d0c <prvAddCurrentTaskToDelayedList+0x94>)
 8001ce6:	681b      	ldr	r3, [r3, #0]
 8001ce8:	429c      	cmp	r4, r3
 8001cea:	d201      	bcs.n	8001cf0 <prvAddCurrentTaskToDelayedList+0x78>
 8001cec:	4b07      	ldr	r3, [pc, #28]	; (8001d0c <prvAddCurrentTaskToDelayedList+0x94>)
 8001cee:	601c      	str	r4, [r3, #0]
 8001cf0:	bd70      	pop	{r4, r5, r6, pc}
 8001cf2:	bf00      	nop
 8001cf4:	20000d2c 	.word	0x20000d2c
 8001cf8:	20000d10 	.word	0x20000d10
 8001cfc:	20000d74 	.word	0x20000d74
 8001d00:	20000d60 	.word	0x20000d60
 8001d04:	20000c70 	.word	0x20000c70
 8001d08:	20000c54 	.word	0x20000c54
 8001d0c:	20000d30 	.word	0x20000d30

08001d10 <xTaskCreate>:
 8001d10:	e92d 43f0 	stmdb	sp!, {r4, r5, r6, r7, r8, r9, lr}
 8001d14:	b085      	sub	sp, #20
 8001d16:	4606      	mov	r6, r0
 8001d18:	460f      	mov	r7, r1
 8001d1a:	4615      	mov	r5, r2
 8001d1c:	4698      	mov	r8, r3
 8001d1e:	0090      	lsls	r0, r2, #2
 8001d20:	f7ff fc60 	bl	80015e4 <pvPortMalloc>
 8001d24:	b160      	cbz	r0, 8001d40 <xTaskCreate+0x30>
 8001d26:	4681      	mov	r9, r0
 8001d28:	2054      	movs	r0, #84	; 0x54
 8001d2a:	f7ff fc5b 	bl	80015e4 <pvPortMalloc>
 8001d2e:	4604      	mov	r4, r0
 8001d30:	b110      	cbz	r0, 8001d38 <xTaskCreate+0x28>
 8001d32:	f8c0 9030 	str.w	r9, [r0, #48]	; 0x30
 8001d36:	e004      	b.n	8001d42 <xTaskCreate+0x32>
 8001d38:	4648      	mov	r0, r9
 8001d3a:	f7ff fcd5 	bl	80016e8 <vPortFree>
 8001d3e:	e000      	b.n	8001d42 <xTaskCreate+0x32>
 8001d40:	2400      	movs	r4, #0
 8001d42:	b18c      	cbz	r4, 8001d68 <xTaskCreate+0x58>
 8001d44:	2300      	movs	r3, #0
 8001d46:	9303      	str	r3, [sp, #12]
 8001d48:	9402      	str	r4, [sp, #8]
 8001d4a:	9b0d      	ldr	r3, [sp, #52]	; 0x34
 8001d4c:	9301      	str	r3, [sp, #4]
 8001d4e:	9b0c      	ldr	r3, [sp, #48]	; 0x30
 8001d50:	9300      	str	r3, [sp, #0]
 8001d52:	4643      	mov	r3, r8
 8001d54:	462a      	mov	r2, r5
 8001d56:	4639      	mov	r1, r7
 8001d58:	4630      	mov	r0, r6
 8001d5a:	f7ff fec5 	bl	8001ae8 <prvInitialiseNewTask>
 8001d5e:	4620      	mov	r0, r4
 8001d60:	f7ff ff36 	bl	8001bd0 <prvAddNewTaskToReadyList>
 8001d64:	2001      	movs	r0, #1
 8001d66:	e001      	b.n	8001d6c <xTaskCreate+0x5c>
 8001d68:	f04f 30ff 	mov.w	r0, #4294967295
 8001d6c:	b005      	add	sp, #20
 8001d6e:	e8bd 83f0 	ldmia.w	sp!, {r4, r5, r6, r7, r8, r9, pc}
 8001d72:	bf00      	nop

08001d74 <vTaskStartScheduler>:
 8001d74:	b500      	push	{lr}
 8001d76:	b083      	sub	sp, #12
 8001d78:	4b17      	ldr	r3, [pc, #92]	; (8001dd8 <vTaskStartScheduler+0x64>)
 8001d7a:	9301      	str	r3, [sp, #4]
 8001d7c:	2300      	movs	r3, #0
 8001d7e:	9300      	str	r3, [sp, #0]
 8001d80:	2280      	movs	r2, #128	; 0x80
 8001d82:	4916      	ldr	r1, [pc, #88]	; (8001ddc <vTaskStartScheduler+0x68>)
 8001d84:	4816      	ldr	r0, [pc, #88]	; (8001de0 <vTaskStartScheduler+0x6c>)
 8001d86:	f7ff ffc3 	bl	8001d10 <xTaskCreate>
 8001d8a:	2801      	cmp	r0, #1
 8001d8c:	d114      	bne.n	8001db8 <vTaskStartScheduler+0x44>
 8001d8e:	f04f 0350 	mov.w	r3, #80	; 0x50
 8001d92:	f383 8811 	msr	BASEPRI, r3
 8001d96:	f3bf 8f6f 	isb	sy
 8001d9a:	f3bf 8f4f 	dsb	sy
 8001d9e:	f04f 32ff 	mov.w	r2, #4294967295
 8001da2:	4b10      	ldr	r3, [pc, #64]	; (8001de4 <vTaskStartScheduler+0x70>)
 8001da4:	601a      	str	r2, [r3, #0]
 8001da6:	2201      	movs	r2, #1
 8001da8:	4b0f      	ldr	r3, [pc, #60]	; (8001de8 <vTaskStartScheduler+0x74>)
 8001daa:	601a      	str	r2, [r3, #0]
 8001dac:	2200      	movs	r2, #0
 8001dae:	4b0f      	ldr	r3, [pc, #60]	; (8001dec <vTaskStartScheduler+0x78>)
 8001db0:	601a      	str	r2, [r3, #0]
 8001db2:	f7ff fdb3 	bl	800191c <xPortStartScheduler>
 8001db6:	e00b      	b.n	8001dd0 <vTaskStartScheduler+0x5c>
 8001db8:	f1b0 3fff 	cmp.w	r0, #4294967295
 8001dbc:	d108      	bne.n	8001dd0 <vTaskStartScheduler+0x5c>
 8001dbe:	f04f 0350 	mov.w	r3, #80	; 0x50
 8001dc2:	f383 8811 	msr	BASEPRI, r3
 8001dc6:	f3bf 8f6f 	isb	sy
 8001dca:	f3bf 8f4f 	dsb	sy
 8001dce:	e7fe      	b.n	8001dce <vTaskStartScheduler+0x5a>
 8001dd0:	b003      	add	sp, #12
 8001dd2:	f85d fb04 	ldr.w	pc, [sp], #4
 8001dd6:	bf00      	nop
 8001dd8:	20000d28 	.word	0x20000d28
 8001ddc:	08002ea4 	.word	0x08002ea4
 8001de0:	080020c1 	.word	0x080020c1
 8001de4:	20000d30 	.word	0x20000d30
 8001de8:	20000c58 	.word	0x20000c58
 8001dec:	20000d2c 	.word	0x20000d2c

08001df0 <vTaskSuspendAll>:
 8001df0:	4a02      	ldr	r2, [pc, #8]	; (8001dfc <vTaskSuspendAll+0xc>)
 8001df2:	6813      	ldr	r3, [r2, #0]
 8001df4:	3301      	adds	r3, #1
 8001df6:	6013      	str	r3, [r2, #0]
 8001df8:	4770      	bx	lr
 8001dfa:	bf00      	nop
 8001dfc:	20000d04 	.word	0x20000d04

08001e00 <xTaskIncrementTick>:
 8001e00:	b5f8      	push	{r3, r4, r5, r6, r7, lr}
 8001e02:	4b3d      	ldr	r3, [pc, #244]	; (8001ef8 <xTaskIncrementTick+0xf8>)
 8001e04:	681b      	ldr	r3, [r3, #0]
 8001e06:	2b00      	cmp	r3, #0
 8001e08:	d169      	bne.n	8001ede <xTaskIncrementTick+0xde>
 8001e0a:	4b3c      	ldr	r3, [pc, #240]	; (8001efc <xTaskIncrementTick+0xfc>)
 8001e0c:	681d      	ldr	r5, [r3, #0]
 8001e0e:	3501      	adds	r5, #1
 8001e10:	601d      	str	r5, [r3, #0]
 8001e12:	b9c5      	cbnz	r5, 8001e46 <xTaskIncrementTick+0x46>
 8001e14:	4b3a      	ldr	r3, [pc, #232]	; (8001f00 <xTaskIncrementTick+0x100>)
 8001e16:	681b      	ldr	r3, [r3, #0]
 8001e18:	681b      	ldr	r3, [r3, #0]
 8001e1a:	b143      	cbz	r3, 8001e2e <xTaskIncrementTick+0x2e>
 8001e1c:	f04f 0350 	mov.w	r3, #80	; 0x50
 8001e20:	f383 8811 	msr	BASEPRI, r3
 8001e24:	f3bf 8f6f 	isb	sy
 8001e28:	f3bf 8f4f 	dsb	sy
 8001e2c:	e7fe      	b.n	8001e2c <xTaskIncrementTick+0x2c>
 8001e2e:	4a34      	ldr	r2, [pc, #208]	; (8001f00 <xTaskIncrementTick+0x100>)
 8001e30:	6811      	ldr	r1, [r2, #0]
 8001e32:	4b34      	ldr	r3, [pc, #208]	; (8001f04 <xTaskIncrementTick+0x104>)
 8001e34:	6818      	ldr	r0, [r3, #0]
 8001e36:	6010      	str	r0, [r2, #0]
 8001e38:	6019      	str	r1, [r3, #0]
 8001e3a:	4a33      	ldr	r2, [pc, #204]	; (8001f08 <xTaskIncrementTick+0x108>)
 8001e3c:	6813      	ldr	r3, [r2, #0]
 8001e3e:	3301      	adds	r3, #1
 8001e40:	6013      	str	r3, [r2, #0]
 8001e42:	f7ff fe2d 	bl	8001aa0 <prvResetNextTaskUnblockTime>
 8001e46:	4b31      	ldr	r3, [pc, #196]	; (8001f0c <xTaskIncrementTick+0x10c>)
 8001e48:	681b      	ldr	r3, [r3, #0]
 8001e4a:	429d      	cmp	r5, r3
 8001e4c:	d203      	bcs.n	8001e56 <xTaskIncrementTick+0x56>
 8001e4e:	2400      	movs	r4, #0
 8001e50:	e03a      	b.n	8001ec8 <xTaskIncrementTick+0xc8>
 8001e52:	2401      	movs	r4, #1
 8001e54:	e000      	b.n	8001e58 <xTaskIncrementTick+0x58>
 8001e56:	2400      	movs	r4, #0
 8001e58:	4b29      	ldr	r3, [pc, #164]	; (8001f00 <xTaskIncrementTick+0x100>)
 8001e5a:	681b      	ldr	r3, [r3, #0]
 8001e5c:	681b      	ldr	r3, [r3, #0]
 8001e5e:	b90b      	cbnz	r3, 8001e64 <xTaskIncrementTick+0x64>
 8001e60:	2301      	movs	r3, #1
 8001e62:	e000      	b.n	8001e66 <xTaskIncrementTick+0x66>
 8001e64:	2300      	movs	r3, #0
 8001e66:	b123      	cbz	r3, 8001e72 <xTaskIncrementTick+0x72>
 8001e68:	f04f 32ff 	mov.w	r2, #4294967295
 8001e6c:	4b27      	ldr	r3, [pc, #156]	; (8001f0c <xTaskIncrementTick+0x10c>)
 8001e6e:	601a      	str	r2, [r3, #0]
 8001e70:	e02a      	b.n	8001ec8 <xTaskIncrementTick+0xc8>
 8001e72:	4b23      	ldr	r3, [pc, #140]	; (8001f00 <xTaskIncrementTick+0x100>)
 8001e74:	681b      	ldr	r3, [r3, #0]
 8001e76:	68db      	ldr	r3, [r3, #12]
 8001e78:	68de      	ldr	r6, [r3, #12]
 8001e7a:	6873      	ldr	r3, [r6, #4]
 8001e7c:	429d      	cmp	r5, r3
 8001e7e:	d202      	bcs.n	8001e86 <xTaskIncrementTick+0x86>
 8001e80:	4a22      	ldr	r2, [pc, #136]	; (8001f0c <xTaskIncrementTick+0x10c>)
 8001e82:	6013      	str	r3, [r2, #0]
 8001e84:	e020      	b.n	8001ec8 <xTaskIncrementTick+0xc8>
 8001e86:	1d37      	adds	r7, r6, #4
 8001e88:	4638      	mov	r0, r7
 8001e8a:	f7ff fdf7 	bl	8001a7c <uxListRemove>
 8001e8e:	6ab3      	ldr	r3, [r6, #40]	; 0x28
 8001e90:	b11b      	cbz	r3, 8001e9a <xTaskIncrementTick+0x9a>
 8001e92:	f106 0018 	add.w	r0, r6, #24
 8001e96:	f7ff fdf1 	bl	8001a7c <uxListRemove>
 8001e9a:	6af3      	ldr	r3, [r6, #44]	; 0x2c
 8001e9c:	2201      	movs	r2, #1
 8001e9e:	fa02 f103 	lsl.w	r1, r2, r3
 8001ea2:	481b      	ldr	r0, [pc, #108]	; (8001f10 <xTaskIncrementTick+0x110>)
 8001ea4:	6802      	ldr	r2, [r0, #0]
 8001ea6:	430a      	orrs	r2, r1
 8001ea8:	6002      	str	r2, [r0, #0]
 8001eaa:	eb03 0383 	add.w	r3, r3, r3, lsl #2
 8001eae:	009a      	lsls	r2, r3, #2
 8001eb0:	4639      	mov	r1, r7
 8001eb2:	4818      	ldr	r0, [pc, #96]	; (8001f14 <xTaskIncrementTick+0x114>)
 8001eb4:	4410      	add	r0, r2
 8001eb6:	f7ff fdbb 	bl	8001a30 <vListInsertEnd>
 8001eba:	6af2      	ldr	r2, [r6, #44]	; 0x2c
 8001ebc:	4b16      	ldr	r3, [pc, #88]	; (8001f18 <xTaskIncrementTick+0x118>)
 8001ebe:	681b      	ldr	r3, [r3, #0]
 8001ec0:	6adb      	ldr	r3, [r3, #44]	; 0x2c
 8001ec2:	429a      	cmp	r2, r3
 8001ec4:	d2c5      	bcs.n	8001e52 <xTaskIncrementTick+0x52>
 8001ec6:	e7c7      	b.n	8001e58 <xTaskIncrementTick+0x58>
 8001ec8:	4b13      	ldr	r3, [pc, #76]	; (8001f18 <xTaskIncrementTick+0x118>)
 8001eca:	681b      	ldr	r3, [r3, #0]
 8001ecc:	6adb      	ldr	r3, [r3, #44]	; 0x2c
 8001ece:	eb03 0383 	add.w	r3, r3, r3, lsl #2
 8001ed2:	009a      	lsls	r2, r3, #2
 8001ed4:	4b0f      	ldr	r3, [pc, #60]	; (8001f14 <xTaskIncrementTick+0x114>)
 8001ed6:	589b      	ldr	r3, [r3, r2]
 8001ed8:	2b01      	cmp	r3, #1
 8001eda:	d806      	bhi.n	8001eea <xTaskIncrementTick+0xea>
 8001edc:	e006      	b.n	8001eec <xTaskIncrementTick+0xec>
 8001ede:	4a0f      	ldr	r2, [pc, #60]	; (8001f1c <xTaskIncrementTick+0x11c>)
 8001ee0:	6813      	ldr	r3, [r2, #0]
 8001ee2:	3301      	adds	r3, #1
 8001ee4:	6013      	str	r3, [r2, #0]
 8001ee6:	2400      	movs	r4, #0
 8001ee8:	e000      	b.n	8001eec <xTaskIncrementTick+0xec>
 8001eea:	2401      	movs	r4, #1
 8001eec:	4b0c      	ldr	r3, [pc, #48]	; (8001f20 <xTaskIncrementTick+0x120>)
 8001eee:	681b      	ldr	r3, [r3, #0]
 8001ef0:	b103      	cbz	r3, 8001ef4 <xTaskIncrementTick+0xf4>
 8001ef2:	2401      	movs	r4, #1
 8001ef4:	4620      	mov	r0, r4
 8001ef6:	bdf8      	pop	{r3, r4, r5, r6, r7, pc}
 8001ef8:	20000d04 	.word	0x20000d04
 8001efc:	20000d2c 	.word	0x20000d2c
 8001f00:	20000c54 	.word	0x20000c54
 8001f04:	20000c70 	.word	0x20000c70
 8001f08:	20000c50 	.word	0x20000c50
 8001f0c:	20000d30 	.word	0x20000d30
 8001f10:	20000d74 	.word	0x20000d74
 8001f14:	20000c78 	.word	0x20000c78
 8001f18:	20000d10 	.word	0x20000d10
 8001f1c:	20000c74 	.word	0x20000c74
 8001f20:	20000d78 	.word	0x20000d78

08001f24 <xTaskResumeAll>:
 8001f24:	b538      	push	{r3, r4, r5, lr}
 8001f26:	4b34      	ldr	r3, [pc, #208]	; (8001ff8 <xTaskResumeAll+0xd4>)
 8001f28:	681b      	ldr	r3, [r3, #0]
 8001f2a:	b943      	cbnz	r3, 8001f3e <xTaskResumeAll+0x1a>
 8001f2c:	f04f 0350 	mov.w	r3, #80	; 0x50
 8001f30:	f383 8811 	msr	BASEPRI, r3
 8001f34:	f3bf 8f6f 	isb	sy
 8001f38:	f3bf 8f4f 	dsb	sy
 8001f3c:	e7fe      	b.n	8001f3c <xTaskResumeAll+0x18>
 8001f3e:	f7ff fc61 	bl	8001804 <vPortEnterCritical>
 8001f42:	4b2d      	ldr	r3, [pc, #180]	; (8001ff8 <xTaskResumeAll+0xd4>)
 8001f44:	681a      	ldr	r2, [r3, #0]
 8001f46:	3a01      	subs	r2, #1
 8001f48:	601a      	str	r2, [r3, #0]
 8001f4a:	681b      	ldr	r3, [r3, #0]
 8001f4c:	2b00      	cmp	r3, #0
 8001f4e:	d14c      	bne.n	8001fea <xTaskResumeAll+0xc6>
 8001f50:	4b2a      	ldr	r3, [pc, #168]	; (8001ffc <xTaskResumeAll+0xd8>)
 8001f52:	681b      	ldr	r3, [r3, #0]
 8001f54:	bb33      	cbnz	r3, 8001fa4 <xTaskResumeAll+0x80>
 8001f56:	2400      	movs	r4, #0
 8001f58:	e04a      	b.n	8001ff0 <xTaskResumeAll+0xcc>
 8001f5a:	4b29      	ldr	r3, [pc, #164]	; (8002000 <xTaskResumeAll+0xdc>)
 8001f5c:	68db      	ldr	r3, [r3, #12]
 8001f5e:	68dc      	ldr	r4, [r3, #12]
 8001f60:	f104 0018 	add.w	r0, r4, #24
 8001f64:	f7ff fd8a 	bl	8001a7c <uxListRemove>
 8001f68:	1d25      	adds	r5, r4, #4
 8001f6a:	4628      	mov	r0, r5
 8001f6c:	f7ff fd86 	bl	8001a7c <uxListRemove>
 8001f70:	6ae3      	ldr	r3, [r4, #44]	; 0x2c
 8001f72:	2201      	movs	r2, #1
 8001f74:	fa02 f103 	lsl.w	r1, r2, r3
 8001f78:	4822      	ldr	r0, [pc, #136]	; (8002004 <xTaskResumeAll+0xe0>)
 8001f7a:	6802      	ldr	r2, [r0, #0]
 8001f7c:	430a      	orrs	r2, r1
 8001f7e:	6002      	str	r2, [r0, #0]
 8001f80:	eb03 0383 	add.w	r3, r3, r3, lsl #2
 8001f84:	009a      	lsls	r2, r3, #2
 8001f86:	4629      	mov	r1, r5
 8001f88:	481f      	ldr	r0, [pc, #124]	; (8002008 <xTaskResumeAll+0xe4>)
 8001f8a:	4410      	add	r0, r2
 8001f8c:	f7ff fd50 	bl	8001a30 <vListInsertEnd>
 8001f90:	6ae2      	ldr	r2, [r4, #44]	; 0x2c
 8001f92:	4b1e      	ldr	r3, [pc, #120]	; (800200c <xTaskResumeAll+0xe8>)
 8001f94:	681b      	ldr	r3, [r3, #0]
 8001f96:	6adb      	ldr	r3, [r3, #44]	; 0x2c
 8001f98:	429a      	cmp	r2, r3
 8001f9a:	d304      	bcc.n	8001fa6 <xTaskResumeAll+0x82>
 8001f9c:	2201      	movs	r2, #1
 8001f9e:	4b1c      	ldr	r3, [pc, #112]	; (8002010 <xTaskResumeAll+0xec>)
 8001fa0:	601a      	str	r2, [r3, #0]
 8001fa2:	e000      	b.n	8001fa6 <xTaskResumeAll+0x82>
 8001fa4:	2400      	movs	r4, #0
 8001fa6:	4b16      	ldr	r3, [pc, #88]	; (8002000 <xTaskResumeAll+0xdc>)
 8001fa8:	681b      	ldr	r3, [r3, #0]
 8001faa:	2b00      	cmp	r3, #0
 8001fac:	d1d5      	bne.n	8001f5a <xTaskResumeAll+0x36>
 8001fae:	b10c      	cbz	r4, 8001fb4 <xTaskResumeAll+0x90>
 8001fb0:	f7ff fd76 	bl	8001aa0 <prvResetNextTaskUnblockTime>
 8001fb4:	4b17      	ldr	r3, [pc, #92]	; (8002014 <xTaskResumeAll+0xf0>)
 8001fb6:	681c      	ldr	r4, [r3, #0]
 8001fb8:	b154      	cbz	r4, 8001fd0 <xTaskResumeAll+0xac>
 8001fba:	f7ff ff21 	bl	8001e00 <xTaskIncrementTick>
 8001fbe:	b110      	cbz	r0, 8001fc6 <xTaskResumeAll+0xa2>
 8001fc0:	2201      	movs	r2, #1
 8001fc2:	4b13      	ldr	r3, [pc, #76]	; (8002010 <xTaskResumeAll+0xec>)
 8001fc4:	601a      	str	r2, [r3, #0]
 8001fc6:	3c01      	subs	r4, #1
 8001fc8:	d1f7      	bne.n	8001fba <xTaskResumeAll+0x96>
 8001fca:	2200      	movs	r2, #0
 8001fcc:	4b11      	ldr	r3, [pc, #68]	; (8002014 <xTaskResumeAll+0xf0>)
 8001fce:	601a      	str	r2, [r3, #0]
 8001fd0:	4b0f      	ldr	r3, [pc, #60]	; (8002010 <xTaskResumeAll+0xec>)
 8001fd2:	681b      	ldr	r3, [r3, #0]
 8001fd4:	b15b      	cbz	r3, 8001fee <xTaskResumeAll+0xca>
 8001fd6:	f04f 5280 	mov.w	r2, #268435456	; 0x10000000
 8001fda:	4b0f      	ldr	r3, [pc, #60]	; (8002018 <xTaskResumeAll+0xf4>)
 8001fdc:	601a      	str	r2, [r3, #0]
 8001fde:	f3bf 8f4f 	dsb	sy
 8001fe2:	f3bf 8f6f 	isb	sy
 8001fe6:	2401      	movs	r4, #1
 8001fe8:	e002      	b.n	8001ff0 <xTaskResumeAll+0xcc>
 8001fea:	2400      	movs	r4, #0
 8001fec:	e000      	b.n	8001ff0 <xTaskResumeAll+0xcc>
 8001fee:	2400      	movs	r4, #0
 8001ff0:	f7ff fc2a 	bl	8001848 <vPortExitCritical>
 8001ff4:	4620      	mov	r0, r4
 8001ff6:	bd38      	pop	{r3, r4, r5, pc}
 8001ff8:	20000d04 	.word	0x20000d04
 8001ffc:	20000d0c 	.word	0x20000d0c
 8002000:	20000d14 	.word	0x20000d14
 8002004:	20000d74 	.word	0x20000d74
 8002008:	20000c78 	.word	0x20000c78
 800200c:	20000d10 	.word	0x20000d10
 8002010:	20000d78 	.word	0x20000d78
 8002014:	20000c74 	.word	0x20000c74
 8002018:	e000ed04 	.word	0xe000ed04

0800201c <vTaskDelay>:
 800201c:	b510      	push	{r4, lr}
 800201e:	b1a8      	cbz	r0, 800204c <vTaskDelay+0x30>
 8002020:	4604      	mov	r4, r0
 8002022:	4b10      	ldr	r3, [pc, #64]	; (8002064 <vTaskDelay+0x48>)
 8002024:	681b      	ldr	r3, [r3, #0]
 8002026:	b143      	cbz	r3, 800203a <vTaskDelay+0x1e>
 8002028:	f04f 0350 	mov.w	r3, #80	; 0x50
 800202c:	f383 8811 	msr	BASEPRI, r3
 8002030:	f3bf 8f6f 	isb	sy
 8002034:	f3bf 8f4f 	dsb	sy
 8002038:	e7fe      	b.n	8002038 <vTaskDelay+0x1c>
 800203a:	f7ff fed9 	bl	8001df0 <vTaskSuspendAll>
 800203e:	2100      	movs	r1, #0
 8002040:	4620      	mov	r0, r4
 8002042:	f7ff fe19 	bl	8001c78 <prvAddCurrentTaskToDelayedList>
 8002046:	f7ff ff6d 	bl	8001f24 <xTaskResumeAll>
 800204a:	e000      	b.n	800204e <vTaskDelay+0x32>
 800204c:	2000      	movs	r0, #0
 800204e:	b938      	cbnz	r0, 8002060 <vTaskDelay+0x44>
 8002050:	f04f 5280 	mov.w	r2, #268435456	; 0x10000000
 8002054:	4b04      	ldr	r3, [pc, #16]	; (8002068 <vTaskDelay+0x4c>)
 8002056:	601a      	str	r2, [r3, #0]
 8002058:	f3bf 8f4f 	dsb	sy
 800205c:	f3bf 8f6f 	isb	sy
 8002060:	bd10      	pop	{r4, pc}
 8002062:	bf00      	nop
 8002064:	20000d04 	.word	0x20000d04
 8002068:	e000ed04 	.word	0xe000ed04

0800206c <prvCheckTasksWaitingTermination>:
 800206c:	b510      	push	{r4, lr}
 800206e:	e01b      	b.n	80020a8 <prvCheckTasksWaitingTermination+0x3c>
 8002070:	f7ff febe 	bl	8001df0 <vTaskSuspendAll>
 8002074:	4b0f      	ldr	r3, [pc, #60]	; (80020b4 <prvCheckTasksWaitingTermination+0x48>)
 8002076:	681c      	ldr	r4, [r3, #0]
 8002078:	f7ff ff54 	bl	8001f24 <xTaskResumeAll>
 800207c:	b1a4      	cbz	r4, 80020a8 <prvCheckTasksWaitingTermination+0x3c>
 800207e:	f7ff fbc1 	bl	8001804 <vPortEnterCritical>
 8002082:	4b0c      	ldr	r3, [pc, #48]	; (80020b4 <prvCheckTasksWaitingTermination+0x48>)
 8002084:	68db      	ldr	r3, [r3, #12]
 8002086:	68dc      	ldr	r4, [r3, #12]
 8002088:	1d20      	adds	r0, r4, #4
 800208a:	f7ff fcf7 	bl	8001a7c <uxListRemove>
 800208e:	4a0a      	ldr	r2, [pc, #40]	; (80020b8 <prvCheckTasksWaitingTermination+0x4c>)
 8002090:	6813      	ldr	r3, [r2, #0]
 8002092:	3b01      	subs	r3, #1
 8002094:	6013      	str	r3, [r2, #0]
 8002096:	4a09      	ldr	r2, [pc, #36]	; (80020bc <prvCheckTasksWaitingTermination+0x50>)
 8002098:	6813      	ldr	r3, [r2, #0]
 800209a:	3b01      	subs	r3, #1
 800209c:	6013      	str	r3, [r2, #0]
 800209e:	f7ff fbd3 	bl	8001848 <vPortExitCritical>
 80020a2:	4620      	mov	r0, r4
 80020a4:	f7ff fd16 	bl	8001ad4 <prvDeleteTCB>
 80020a8:	4b04      	ldr	r3, [pc, #16]	; (80020bc <prvCheckTasksWaitingTermination+0x50>)
 80020aa:	681b      	ldr	r3, [r3, #0]
 80020ac:	2b00      	cmp	r3, #0
 80020ae:	d1df      	bne.n	8002070 <prvCheckTasksWaitingTermination+0x4>
 80020b0:	bd10      	pop	{r4, pc}
 80020b2:	bf00      	nop
 80020b4:	20000c5c 	.word	0x20000c5c
 80020b8:	20000d0c 	.word	0x20000d0c
 80020bc:	20000d08 	.word	0x20000d08

080020c0 <prvIdleTask>:
 80020c0:	b508      	push	{r3, lr}
 80020c2:	f7ff ffd3 	bl	800206c <prvCheckTasksWaitingTermination>
 80020c6:	4b06      	ldr	r3, [pc, #24]	; (80020e0 <prvIdleTask+0x20>)
 80020c8:	681b      	ldr	r3, [r3, #0]
 80020ca:	2b01      	cmp	r3, #1
 80020cc:	d9f9      	bls.n	80020c2 <prvIdleTask+0x2>
 80020ce:	f04f 5280 	mov.w	r2, #268435456	; 0x10000000
 80020d2:	4b04      	ldr	r3, [pc, #16]	; (80020e4 <prvIdleTask+0x24>)
 80020d4:	601a      	str	r2, [r3, #0]
 80020d6:	f3bf 8f4f 	dsb	sy
 80020da:	f3bf 8f6f 	isb	sy
 80020de:	e7f0      	b.n	80020c2 <prvIdleTask+0x2>
 80020e0:	20000c78 	.word	0x20000c78
 80020e4:	e000ed04 	.word	0xe000ed04

080020e8 <vTaskSwitchContext>:
 80020e8:	4b1f      	ldr	r3, [pc, #124]	; (8002168 <vTaskSwitchContext+0x80>)
 80020ea:	681b      	ldr	r3, [r3, #0]
 80020ec:	b11b      	cbz	r3, 80020f6 <vTaskSwitchContext+0xe>
 80020ee:	2201      	movs	r2, #1
 80020f0:	4b1e      	ldr	r3, [pc, #120]	; (800216c <vTaskSwitchContext+0x84>)
 80020f2:	601a      	str	r2, [r3, #0]
 80020f4:	4770      	bx	lr
 80020f6:	2200      	movs	r2, #0
 80020f8:	4b1c      	ldr	r3, [pc, #112]	; (800216c <vTaskSwitchContext+0x84>)
 80020fa:	601a      	str	r2, [r3, #0]
 80020fc:	4b1c      	ldr	r3, [pc, #112]	; (8002170 <vTaskSwitchContext+0x88>)
 80020fe:	681b      	ldr	r3, [r3, #0]
 8002100:	fab3 f383 	clz	r3, r3
 8002104:	b2db      	uxtb	r3, r3
 8002106:	f1c3 031f 	rsb	r3, r3, #31
 800210a:	eb03 0183 	add.w	r1, r3, r3, lsl #2
 800210e:	008a      	lsls	r2, r1, #2
 8002110:	4918      	ldr	r1, [pc, #96]	; (8002174 <vTaskSwitchContext+0x8c>)
 8002112:	588a      	ldr	r2, [r1, r2]
 8002114:	b942      	cbnz	r2, 8002128 <vTaskSwitchContext+0x40>
 8002116:	f04f 0350 	mov.w	r3, #80	; 0x50
 800211a:	f383 8811 	msr	BASEPRI, r3
 800211e:	f3bf 8f6f 	isb	sy
 8002122:	f3bf 8f4f 	dsb	sy
 8002126:	e7fe      	b.n	8002126 <vTaskSwitchContext+0x3e>
 8002128:	b430      	push	{r4, r5}
 800212a:	4d12      	ldr	r5, [pc, #72]	; (8002174 <vTaskSwitchContext+0x8c>)
 800212c:	0099      	lsls	r1, r3, #2
 800212e:	18ca      	adds	r2, r1, r3
 8002130:	0090      	lsls	r0, r2, #2
 8002132:	4428      	add	r0, r5
 8002134:	6842      	ldr	r2, [r0, #4]
 8002136:	6854      	ldr	r4, [r2, #4]
 8002138:	6044      	str	r4, [r0, #4]
 800213a:	4419      	add	r1, r3
 800213c:	008a      	lsls	r2, r1, #2
 800213e:	3208      	adds	r2, #8
 8002140:	442a      	add	r2, r5
 8002142:	4294      	cmp	r4, r2
 8002144:	d105      	bne.n	8002152 <vTaskSwitchContext+0x6a>
 8002146:	6860      	ldr	r0, [r4, #4]
 8002148:	eb03 0183 	add.w	r1, r3, r3, lsl #2
 800214c:	008a      	lsls	r2, r1, #2
 800214e:	442a      	add	r2, r5
 8002150:	6050      	str	r0, [r2, #4]
 8002152:	eb03 0383 	add.w	r3, r3, r3, lsl #2
 8002156:	009a      	lsls	r2, r3, #2
 8002158:	4b06      	ldr	r3, [pc, #24]	; (8002174 <vTaskSwitchContext+0x8c>)
 800215a:	441a      	add	r2, r3
 800215c:	6853      	ldr	r3, [r2, #4]
 800215e:	68da      	ldr	r2, [r3, #12]
 8002160:	4b05      	ldr	r3, [pc, #20]	; (8002178 <vTaskSwitchContext+0x90>)
 8002162:	601a      	str	r2, [r3, #0]
 8002164:	bc30      	pop	{r4, r5}
 8002166:	4770      	bx	lr
 8002168:	20000d04 	.word	0x20000d04
 800216c:	20000d78 	.word	0x20000d78
 8002170:	20000d74 	.word	0x20000d74
 8002174:	20000c78 	.word	0x20000c78
 8002178:	20000d10 	.word	0x20000d10

0800217c <vTaskPlaceOnEventList>:
 800217c:	b940      	cbnz	r0, 8002190 <vTaskPlaceOnEventList+0x14>
 800217e:	f04f 0350 	mov.w	r3, #80	; 0x50
 8002182:	f383 8811 	msr	BASEPRI, r3
 8002186:	f3bf 8f6f 	isb	sy
 800218a:	f3bf 8f4f 	dsb	sy
 800218e:	e7fe      	b.n	800218e <vTaskPlaceOnEventList+0x12>
 8002190:	b510      	push	{r4, lr}
 8002192:	460c      	mov	r4, r1
 8002194:	4b04      	ldr	r3, [pc, #16]	; (80021a8 <vTaskPlaceOnEventList+0x2c>)
 8002196:	6819      	ldr	r1, [r3, #0]
 8002198:	3118      	adds	r1, #24
 800219a:	f7ff fc55 	bl	8001a48 <vListInsert>
 800219e:	2101      	movs	r1, #1
 80021a0:	4620      	mov	r0, r4
 80021a2:	f7ff fd69 	bl	8001c78 <prvAddCurrentTaskToDelayedList>
 80021a6:	bd10      	pop	{r4, pc}
 80021a8:	20000d10 	.word	0x20000d10

080021ac <xTaskRemoveFromEventList>:
 80021ac:	b538      	push	{r3, r4, r5, lr}
 80021ae:	68c3      	ldr	r3, [r0, #12]
 80021b0:	68dc      	ldr	r4, [r3, #12]
 80021b2:	b944      	cbnz	r4, 80021c6 <xTaskRemoveFromEventList+0x1a>
 80021b4:	f04f 0350 	mov.w	r3, #80	; 0x50
 80021b8:	f383 8811 	msr	BASEPRI, r3
 80021bc:	f3bf 8f6f 	isb	sy
 80021c0:	f3bf 8f4f 	dsb	sy
 80021c4:	e7fe      	b.n	80021c4 <xTaskRemoveFromEventList+0x18>
 80021c6:	f104 0518 	add.w	r5, r4, #24
 80021ca:	4628      	mov	r0, r5
 80021cc:	f7ff fc56 	bl	8001a7c <uxListRemove>
 80021d0:	4b13      	ldr	r3, [pc, #76]	; (8002220 <xTaskRemoveFromEventList+0x74>)
 80021d2:	681b      	ldr	r3, [r3, #0]
 80021d4:	b9a3      	cbnz	r3, 8002200 <xTaskRemoveFromEventList+0x54>
 80021d6:	1d25      	adds	r5, r4, #4
 80021d8:	4628      	mov	r0, r5
 80021da:	f7ff fc4f 	bl	8001a7c <uxListRemove>
 80021de:	6ae3      	ldr	r3, [r4, #44]	; 0x2c
 80021e0:	2201      	movs	r2, #1
 80021e2:	fa02 f103 	lsl.w	r1, r2, r3
 80021e6:	480f      	ldr	r0, [pc, #60]	; (8002224 <xTaskRemoveFromEventList+0x78>)
 80021e8:	6802      	ldr	r2, [r0, #0]
 80021ea:	430a      	orrs	r2, r1
 80021ec:	6002      	str	r2, [r0, #0]
 80021ee:	eb03 0383 	add.w	r3, r3, r3, lsl #2
 80021f2:	009a      	lsls	r2, r3, #2
 80021f4:	4629      	mov	r1, r5
 80021f6:	480c      	ldr	r0, [pc, #48]	; (8002228 <xTaskRemoveFromEventList+0x7c>)
 80021f8:	4410      	add	r0, r2
 80021fa:	f7ff fc19 	bl	8001a30 <vListInsertEnd>
 80021fe:	e003      	b.n	8002208 <xTaskRemoveFromEventList+0x5c>
 8002200:	4629      	mov	r1, r5
 8002202:	480a      	ldr	r0, [pc, #40]	; (800222c <xTaskRemoveFromEventList+0x80>)
 8002204:	f7ff fc14 	bl	8001a30 <vListInsertEnd>
 8002208:	6ae2      	ldr	r2, [r4, #44]	; 0x2c
 800220a:	4b09      	ldr	r3, [pc, #36]	; (8002230 <xTaskRemoveFromEventList+0x84>)
 800220c:	681b      	ldr	r3, [r3, #0]
 800220e:	6adb      	ldr	r3, [r3, #44]	; 0x2c
 8002210:	429a      	cmp	r2, r3
 8002212:	d903      	bls.n	800221c <xTaskRemoveFromEventList+0x70>
 8002214:	2001      	movs	r0, #1
 8002216:	4b07      	ldr	r3, [pc, #28]	; (8002234 <xTaskRemoveFromEventList+0x88>)
 8002218:	6018      	str	r0, [r3, #0]
 800221a:	bd38      	pop	{r3, r4, r5, pc}
 800221c:	2000      	movs	r0, #0
 800221e:	bd38      	pop	{r3, r4, r5, pc}
 8002220:	20000d04 	.word	0x20000d04
 8002224:	20000d74 	.word	0x20000d74
 8002228:	20000c78 	.word	0x20000c78
 800222c:	20000d14 	.word	0x20000d14
 8002230:	20000d10 	.word	0x20000d10
 8002234:	20000d78 	.word	0x20000d78

08002238 <vTaskSetTimeOutState>:
 8002238:	b940      	cbnz	r0, 800224c <vTaskSetTimeOutState+0x14>
 800223a:	f04f 0350 	mov.w	r3, #80	; 0x50
 800223e:	f383 8811 	msr	BASEPRI, r3
 8002242:	f3bf 8f6f 	isb	sy
 8002246:	f3bf 8f4f 	dsb	sy
 800224a:	e7fe      	b.n	800224a <vTaskSetTimeOutState+0x12>
 800224c:	4a03      	ldr	r2, [pc, #12]	; (800225c <vTaskSetTimeOutState+0x24>)
 800224e:	6812      	ldr	r2, [r2, #0]
 8002250:	6002      	str	r2, [r0, #0]
 8002252:	4a03      	ldr	r2, [pc, #12]	; (8002260 <vTaskSetTimeOutState+0x28>)
 8002254:	6812      	ldr	r2, [r2, #0]
 8002256:	6042      	str	r2, [r0, #4]
 8002258:	4770      	bx	lr
 800225a:	bf00      	nop
 800225c:	20000c50 	.word	0x20000c50
 8002260:	20000d2c 	.word	0x20000d2c

08002264 <xTaskCheckForTimeOut>:
 8002264:	b538      	push	{r3, r4, r5, lr}
 8002266:	b940      	cbnz	r0, 800227a <xTaskCheckForTimeOut+0x16>
 8002268:	f04f 0350 	mov.w	r3, #80	; 0x50
 800226c:	f383 8811 	msr	BASEPRI, r3
 8002270:	f3bf 8f6f 	isb	sy
 8002274:	f3bf 8f4f 	dsb	sy
 8002278:	e7fe      	b.n	8002278 <xTaskCheckForTimeOut+0x14>
 800227a:	4604      	mov	r4, r0
 800227c:	b941      	cbnz	r1, 8002290 <xTaskCheckForTimeOut+0x2c>
 800227e:	f04f 0350 	mov.w	r3, #80	; 0x50
 8002282:	f383 8811 	msr	BASEPRI, r3
 8002286:	f3bf 8f6f 	isb	sy
 800228a:	f3bf 8f4f 	dsb	sy
 800228e:	e7fe      	b.n	800228e <xTaskCheckForTimeOut+0x2a>
 8002290:	460d      	mov	r5, r1
 8002292:	f7ff fab7 	bl	8001804 <vPortEnterCritical>
 8002296:	4b11      	ldr	r3, [pc, #68]	; (80022dc <xTaskCheckForTimeOut+0x78>)
 8002298:	6819      	ldr	r1, [r3, #0]
 800229a:	682a      	ldr	r2, [r5, #0]
 800229c:	f1b2 3fff 	cmp.w	r2, #4294967295
 80022a0:	d013      	beq.n	80022ca <xTaskCheckForTimeOut+0x66>
 80022a2:	6820      	ldr	r0, [r4, #0]
 80022a4:	4b0e      	ldr	r3, [pc, #56]	; (80022e0 <xTaskCheckForTimeOut+0x7c>)
 80022a6:	681b      	ldr	r3, [r3, #0]
 80022a8:	4298      	cmp	r0, r3
 80022aa:	d002      	beq.n	80022b2 <xTaskCheckForTimeOut+0x4e>
 80022ac:	6863      	ldr	r3, [r4, #4]
 80022ae:	4299      	cmp	r1, r3
 80022b0:	d20d      	bcs.n	80022ce <xTaskCheckForTimeOut+0x6a>
 80022b2:	6863      	ldr	r3, [r4, #4]
 80022b4:	1ac8      	subs	r0, r1, r3
 80022b6:	4282      	cmp	r2, r0
 80022b8:	d90b      	bls.n	80022d2 <xTaskCheckForTimeOut+0x6e>
 80022ba:	1a5b      	subs	r3, r3, r1
 80022bc:	4413      	add	r3, r2
 80022be:	602b      	str	r3, [r5, #0]
 80022c0:	4620      	mov	r0, r4
 80022c2:	f7ff ffb9 	bl	8002238 <vTaskSetTimeOutState>
 80022c6:	2400      	movs	r4, #0
 80022c8:	e004      	b.n	80022d4 <xTaskCheckForTimeOut+0x70>
 80022ca:	2400      	movs	r4, #0
 80022cc:	e002      	b.n	80022d4 <xTaskCheckForTimeOut+0x70>
 80022ce:	2401      	movs	r4, #1
 80022d0:	e000      	b.n	80022d4 <xTaskCheckForTimeOut+0x70>
 80022d2:	2401      	movs	r4, #1
 80022d4:	f7ff fab8 	bl	8001848 <vPortExitCritical>
 80022d8:	4620      	mov	r0, r4
 80022da:	bd38      	pop	{r3, r4, r5, pc}
 80022dc:	20000d2c 	.word	0x20000d2c
 80022e0:	20000c50 	.word	0x20000c50

080022e4 <vTaskMissedYield>:
 80022e4:	2201      	movs	r2, #1
 80022e6:	4b01      	ldr	r3, [pc, #4]	; (80022ec <vTaskMissedYield+0x8>)
 80022e8:	601a      	str	r2, [r3, #0]
 80022ea:	4770      	bx	lr
 80022ec:	20000d78 	.word	0x20000d78

080022f0 <xTaskGetSchedulerState>:
 80022f0:	4b05      	ldr	r3, [pc, #20]	; (8002308 <xTaskGetSchedulerState+0x18>)
 80022f2:	681b      	ldr	r3, [r3, #0]
 80022f4:	b123      	cbz	r3, 8002300 <xTaskGetSchedulerState+0x10>
 80022f6:	4b05      	ldr	r3, [pc, #20]	; (800230c <xTaskGetSchedulerState+0x1c>)
 80022f8:	681b      	ldr	r3, [r3, #0]
 80022fa:	b91b      	cbnz	r3, 8002304 <xTaskGetSchedulerState+0x14>
 80022fc:	2002      	movs	r0, #2
 80022fe:	4770      	bx	lr
 8002300:	2001      	movs	r0, #1
 8002302:	4770      	bx	lr
 8002304:	2000      	movs	r0, #0
 8002306:	4770      	bx	lr
 8002308:	20000c58 	.word	0x20000c58
 800230c:	20000d04 	.word	0x20000d04

08002310 <vTaskPriorityInherit>:
 8002310:	2800      	cmp	r0, #0
 8002312:	d04a      	beq.n	80023aa <vTaskPriorityInherit+0x9a>
 8002314:	b538      	push	{r3, r4, r5, lr}
 8002316:	4602      	mov	r2, r0
 8002318:	6ac3      	ldr	r3, [r0, #44]	; 0x2c
 800231a:	4924      	ldr	r1, [pc, #144]	; (80023ac <vTaskPriorityInherit+0x9c>)
 800231c:	6809      	ldr	r1, [r1, #0]
 800231e:	6ac9      	ldr	r1, [r1, #44]	; 0x2c
 8002320:	428b      	cmp	r3, r1
 8002322:	d241      	bcs.n	80023a8 <vTaskPriorityInherit+0x98>
 8002324:	6981      	ldr	r1, [r0, #24]
 8002326:	2900      	cmp	r1, #0
 8002328:	db05      	blt.n	8002336 <vTaskPriorityInherit+0x26>
 800232a:	4920      	ldr	r1, [pc, #128]	; (80023ac <vTaskPriorityInherit+0x9c>)
 800232c:	6809      	ldr	r1, [r1, #0]
 800232e:	6ac9      	ldr	r1, [r1, #44]	; 0x2c
 8002330:	f1c1 0107 	rsb	r1, r1, #7
 8002334:	6181      	str	r1, [r0, #24]
 8002336:	6950      	ldr	r0, [r2, #20]
 8002338:	eb03 0383 	add.w	r3, r3, r3, lsl #2
 800233c:	0099      	lsls	r1, r3, #2
 800233e:	4b1c      	ldr	r3, [pc, #112]	; (80023b0 <vTaskPriorityInherit+0xa0>)
 8002340:	4419      	add	r1, r3
 8002342:	4288      	cmp	r0, r1
 8002344:	d101      	bne.n	800234a <vTaskPriorityInherit+0x3a>
 8002346:	2301      	movs	r3, #1
 8002348:	e000      	b.n	800234c <vTaskPriorityInherit+0x3c>
 800234a:	2300      	movs	r3, #0
 800234c:	b343      	cbz	r3, 80023a0 <vTaskPriorityInherit+0x90>
 800234e:	4614      	mov	r4, r2
 8002350:	1d15      	adds	r5, r2, #4
 8002352:	4628      	mov	r0, r5
 8002354:	f7ff fb92 	bl	8001a7c <uxListRemove>
 8002358:	b970      	cbnz	r0, 8002378 <vTaskPriorityInherit+0x68>
 800235a:	6ae3      	ldr	r3, [r4, #44]	; 0x2c
 800235c:	eb03 0183 	add.w	r1, r3, r3, lsl #2
 8002360:	008a      	lsls	r2, r1, #2
 8002362:	4913      	ldr	r1, [pc, #76]	; (80023b0 <vTaskPriorityInherit+0xa0>)
 8002364:	588a      	ldr	r2, [r1, r2]
 8002366:	b93a      	cbnz	r2, 8002378 <vTaskPriorityInherit+0x68>
 8002368:	2201      	movs	r2, #1
 800236a:	fa02 f303 	lsl.w	r3, r2, r3
 800236e:	4911      	ldr	r1, [pc, #68]	; (80023b4 <vTaskPriorityInherit+0xa4>)
 8002370:	680a      	ldr	r2, [r1, #0]
 8002372:	ea22 0303 	bic.w	r3, r2, r3
 8002376:	600b      	str	r3, [r1, #0]
 8002378:	4b0c      	ldr	r3, [pc, #48]	; (80023ac <vTaskPriorityInherit+0x9c>)
 800237a:	681b      	ldr	r3, [r3, #0]
 800237c:	6adb      	ldr	r3, [r3, #44]	; 0x2c
 800237e:	62e3      	str	r3, [r4, #44]	; 0x2c
 8002380:	2201      	movs	r2, #1
 8002382:	fa02 f103 	lsl.w	r1, r2, r3
 8002386:	480b      	ldr	r0, [pc, #44]	; (80023b4 <vTaskPriorityInherit+0xa4>)
 8002388:	6802      	ldr	r2, [r0, #0]
 800238a:	430a      	orrs	r2, r1
 800238c:	6002      	str	r2, [r0, #0]
 800238e:	eb03 0383 	add.w	r3, r3, r3, lsl #2
 8002392:	009a      	lsls	r2, r3, #2
 8002394:	4629      	mov	r1, r5
 8002396:	4806      	ldr	r0, [pc, #24]	; (80023b0 <vTaskPriorityInherit+0xa0>)
 8002398:	4410      	add	r0, r2
 800239a:	f7ff fb49 	bl	8001a30 <vListInsertEnd>
 800239e:	bd38      	pop	{r3, r4, r5, pc}
 80023a0:	4b02      	ldr	r3, [pc, #8]	; (80023ac <vTaskPriorityInherit+0x9c>)
 80023a2:	681b      	ldr	r3, [r3, #0]
 80023a4:	6adb      	ldr	r3, [r3, #44]	; 0x2c
 80023a6:	62d3      	str	r3, [r2, #44]	; 0x2c
 80023a8:	bd38      	pop	{r3, r4, r5, pc}
 80023aa:	4770      	bx	lr
 80023ac:	20000d10 	.word	0x20000d10
 80023b0:	20000c78 	.word	0x20000c78
 80023b4:	20000d74 	.word	0x20000d74

080023b8 <xTaskPriorityDisinherit>:
 80023b8:	2800      	cmp	r0, #0
 80023ba:	d04b      	beq.n	8002454 <xTaskPriorityDisinherit+0x9c>
 80023bc:	b538      	push	{r3, r4, r5, lr}
 80023be:	4603      	mov	r3, r0
 80023c0:	4a27      	ldr	r2, [pc, #156]	; (8002460 <xTaskPriorityDisinherit+0xa8>)
 80023c2:	6812      	ldr	r2, [r2, #0]
 80023c4:	4290      	cmp	r0, r2
 80023c6:	d008      	beq.n	80023da <xTaskPriorityDisinherit+0x22>
 80023c8:	f04f 0350 	mov.w	r3, #80	; 0x50
 80023cc:	f383 8811 	msr	BASEPRI, r3
 80023d0:	f3bf 8f6f 	isb	sy
 80023d4:	f3bf 8f4f 	dsb	sy
 80023d8:	e7fe      	b.n	80023d8 <xTaskPriorityDisinherit+0x20>
 80023da:	6c82      	ldr	r2, [r0, #72]	; 0x48
 80023dc:	b942      	cbnz	r2, 80023f0 <xTaskPriorityDisinherit+0x38>
 80023de:	f04f 0350 	mov.w	r3, #80	; 0x50
 80023e2:	f383 8811 	msr	BASEPRI, r3
 80023e6:	f3bf 8f6f 	isb	sy
 80023ea:	f3bf 8f4f 	dsb	sy
 80023ee:	e7fe      	b.n	80023ee <xTaskPriorityDisinherit+0x36>
 80023f0:	3a01      	subs	r2, #1
 80023f2:	6482      	str	r2, [r0, #72]	; 0x48
 80023f4:	6ac0      	ldr	r0, [r0, #44]	; 0x2c
 80023f6:	6c59      	ldr	r1, [r3, #68]	; 0x44
 80023f8:	4288      	cmp	r0, r1
 80023fa:	d02d      	beq.n	8002458 <xTaskPriorityDisinherit+0xa0>
 80023fc:	bb72      	cbnz	r2, 800245c <xTaskPriorityDisinherit+0xa4>
 80023fe:	461c      	mov	r4, r3
 8002400:	1d1d      	adds	r5, r3, #4
 8002402:	4628      	mov	r0, r5
 8002404:	f7ff fb3a 	bl	8001a7c <uxListRemove>
 8002408:	b970      	cbnz	r0, 8002428 <xTaskPriorityDisinherit+0x70>
 800240a:	6ae2      	ldr	r2, [r4, #44]	; 0x2c
 800240c:	eb02 0182 	add.w	r1, r2, r2, lsl #2
 8002410:	008b      	lsls	r3, r1, #2
 8002412:	4914      	ldr	r1, [pc, #80]	; (8002464 <xTaskPriorityDisinherit+0xac>)
 8002414:	58cb      	ldr	r3, [r1, r3]
 8002416:	b93b      	cbnz	r3, 8002428 <xTaskPriorityDisinherit+0x70>
 8002418:	2301      	movs	r3, #1
 800241a:	fa03 f202 	lsl.w	r2, r3, r2
 800241e:	4912      	ldr	r1, [pc, #72]	; (8002468 <xTaskPriorityDisinherit+0xb0>)
 8002420:	680b      	ldr	r3, [r1, #0]
 8002422:	ea23 0302 	bic.w	r3, r3, r2
 8002426:	600b      	str	r3, [r1, #0]
 8002428:	6c63      	ldr	r3, [r4, #68]	; 0x44
 800242a:	62e3      	str	r3, [r4, #44]	; 0x2c
 800242c:	f1c3 0207 	rsb	r2, r3, #7
 8002430:	61a2      	str	r2, [r4, #24]
 8002432:	2401      	movs	r4, #1
 8002434:	fa04 f003 	lsl.w	r0, r4, r3
 8002438:	490b      	ldr	r1, [pc, #44]	; (8002468 <xTaskPriorityDisinherit+0xb0>)
 800243a:	680a      	ldr	r2, [r1, #0]
 800243c:	4302      	orrs	r2, r0
 800243e:	600a      	str	r2, [r1, #0]
 8002440:	eb03 0383 	add.w	r3, r3, r3, lsl #2
 8002444:	009a      	lsls	r2, r3, #2
 8002446:	4629      	mov	r1, r5
 8002448:	4806      	ldr	r0, [pc, #24]	; (8002464 <xTaskPriorityDisinherit+0xac>)
 800244a:	4410      	add	r0, r2
 800244c:	f7ff faf0 	bl	8001a30 <vListInsertEnd>
 8002450:	4620      	mov	r0, r4
 8002452:	bd38      	pop	{r3, r4, r5, pc}
 8002454:	2000      	movs	r0, #0
 8002456:	4770      	bx	lr
 8002458:	2000      	movs	r0, #0
 800245a:	bd38      	pop	{r3, r4, r5, pc}
 800245c:	2000      	movs	r0, #0
 800245e:	bd38      	pop	{r3, r4, r5, pc}
 8002460:	20000d10 	.word	0x20000d10
 8002464:	20000c78 	.word	0x20000c78
 8002468:	20000d74 	.word	0x20000d74

0800246c <pvTaskIncrementMutexHeldCount>:
 800246c:	4b05      	ldr	r3, [pc, #20]	; (8002484 <pvTaskIncrementMutexHeldCount+0x18>)
 800246e:	681b      	ldr	r3, [r3, #0]
 8002470:	b123      	cbz	r3, 800247c <pvTaskIncrementMutexHeldCount+0x10>
 8002472:	4b04      	ldr	r3, [pc, #16]	; (8002484 <pvTaskIncrementMutexHeldCount+0x18>)
 8002474:	681a      	ldr	r2, [r3, #0]
 8002476:	6c93      	ldr	r3, [r2, #72]	; 0x48
 8002478:	3301      	adds	r3, #1
 800247a:	6493      	str	r3, [r2, #72]	; 0x48
 800247c:	4b01      	ldr	r3, [pc, #4]	; (8002484 <pvTaskIncrementMutexHeldCount+0x18>)
 800247e:	6818      	ldr	r0, [r3, #0]
 8002480:	4770      	bx	lr
 8002482:	bf00      	nop
 8002484:	20000d10 	.word	0x20000d10

08002488 <prvIsQueueFull>:
 8002488:	b510      	push	{r4, lr}
 800248a:	4604      	mov	r4, r0
 800248c:	f7ff f9ba 	bl	8001804 <vPortEnterCritical>
 8002490:	6ba2      	ldr	r2, [r4, #56]	; 0x38
 8002492:	6be3      	ldr	r3, [r4, #60]	; 0x3c
 8002494:	429a      	cmp	r2, r3
 8002496:	d101      	bne.n	800249c <prvIsQueueFull+0x14>
 8002498:	2401      	movs	r4, #1
 800249a:	e000      	b.n	800249e <prvIsQueueFull+0x16>
 800249c:	2400      	movs	r4, #0
 800249e:	f7ff f9d3 	bl	8001848 <vPortExitCritical>
 80024a2:	4620      	mov	r0, r4
 80024a4:	bd10      	pop	{r4, pc}
 80024a6:	bf00      	nop

080024a8 <prvIsQueueEmpty>:
 80024a8:	b510      	push	{r4, lr}
 80024aa:	4604      	mov	r4, r0
 80024ac:	f7ff f9aa 	bl	8001804 <vPortEnterCritical>
 80024b0:	6ba3      	ldr	r3, [r4, #56]	; 0x38
 80024b2:	b90b      	cbnz	r3, 80024b8 <prvIsQueueEmpty+0x10>
 80024b4:	2401      	movs	r4, #1
 80024b6:	e000      	b.n	80024ba <prvIsQueueEmpty+0x12>
 80024b8:	2400      	movs	r4, #0
 80024ba:	f7ff f9c5 	bl	8001848 <vPortExitCritical>
 80024be:	4620      	mov	r0, r4
 80024c0:	bd10      	pop	{r4, pc}
 80024c2:	bf00      	nop

080024c4 <prvCopyDataToQueue>:
 80024c4:	b570      	push	{r4, r5, r6, lr}
 80024c6:	4604      	mov	r4, r0
 80024c8:	4616      	mov	r6, r2
 80024ca:	6b85      	ldr	r5, [r0, #56]	; 0x38
 80024cc:	6c02      	ldr	r2, [r0, #64]	; 0x40
 80024ce:	b93a      	cbnz	r2, 80024e0 <prvCopyDataToQueue+0x1c>
 80024d0:	6803      	ldr	r3, [r0, #0]
 80024d2:	bb43      	cbnz	r3, 8002526 <prvCopyDataToQueue+0x62>
 80024d4:	6840      	ldr	r0, [r0, #4]
 80024d6:	f7ff ff6f 	bl	80023b8 <xTaskPriorityDisinherit>
 80024da:	2300      	movs	r3, #0
 80024dc:	6063      	str	r3, [r4, #4]
 80024de:	e029      	b.n	8002534 <prvCopyDataToQueue+0x70>
 80024e0:	b96e      	cbnz	r6, 80024fe <prvCopyDataToQueue+0x3a>
 80024e2:	6880      	ldr	r0, [r0, #8]
 80024e4:	f7fd fefe 	bl	80002e4 <memcpy>
 80024e8:	68a2      	ldr	r2, [r4, #8]
 80024ea:	6c23      	ldr	r3, [r4, #64]	; 0x40
 80024ec:	4413      	add	r3, r2
 80024ee:	60a3      	str	r3, [r4, #8]
 80024f0:	6862      	ldr	r2, [r4, #4]
 80024f2:	4293      	cmp	r3, r2
 80024f4:	d319      	bcc.n	800252a <prvCopyDataToQueue+0x66>
 80024f6:	6823      	ldr	r3, [r4, #0]
 80024f8:	60a3      	str	r3, [r4, #8]
 80024fa:	2000      	movs	r0, #0
 80024fc:	e01a      	b.n	8002534 <prvCopyDataToQueue+0x70>
 80024fe:	68c0      	ldr	r0, [r0, #12]
 8002500:	f7fd fef0 	bl	80002e4 <memcpy>
 8002504:	6c23      	ldr	r3, [r4, #64]	; 0x40
 8002506:	425b      	negs	r3, r3
 8002508:	68e2      	ldr	r2, [r4, #12]
 800250a:	441a      	add	r2, r3
 800250c:	60e2      	str	r2, [r4, #12]
 800250e:	6821      	ldr	r1, [r4, #0]
 8002510:	428a      	cmp	r2, r1
 8002512:	d202      	bcs.n	800251a <prvCopyDataToQueue+0x56>
 8002514:	6862      	ldr	r2, [r4, #4]
 8002516:	4413      	add	r3, r2
 8002518:	60e3      	str	r3, [r4, #12]
 800251a:	2e02      	cmp	r6, #2
 800251c:	d107      	bne.n	800252e <prvCopyDataToQueue+0x6a>
 800251e:	b145      	cbz	r5, 8002532 <prvCopyDataToQueue+0x6e>
 8002520:	3d01      	subs	r5, #1
 8002522:	2000      	movs	r0, #0
 8002524:	e006      	b.n	8002534 <prvCopyDataToQueue+0x70>
 8002526:	2000      	movs	r0, #0
 8002528:	e004      	b.n	8002534 <prvCopyDataToQueue+0x70>
 800252a:	2000      	movs	r0, #0
 800252c:	e002      	b.n	8002534 <prvCopyDataToQueue+0x70>
 800252e:	2000      	movs	r0, #0
 8002530:	e000      	b.n	8002534 <prvCopyDataToQueue+0x70>
 8002532:	2000      	movs	r0, #0
 8002534:	3501      	adds	r5, #1
 8002536:	63a5      	str	r5, [r4, #56]	; 0x38
 8002538:	bd70      	pop	{r4, r5, r6, pc}
 800253a:	bf00      	nop

0800253c <prvCopyDataFromQueue>:
 800253c:	6c02      	ldr	r2, [r0, #64]	; 0x40
 800253e:	b172      	cbz	r2, 800255e <prvCopyDataFromQueue+0x22>
 8002540:	b510      	push	{r4, lr}
 8002542:	4603      	mov	r3, r0
 8002544:	68c4      	ldr	r4, [r0, #12]
 8002546:	4414      	add	r4, r2
 8002548:	60c4      	str	r4, [r0, #12]
 800254a:	6840      	ldr	r0, [r0, #4]
 800254c:	4284      	cmp	r4, r0
 800254e:	d301      	bcc.n	8002554 <prvCopyDataFromQueue+0x18>
 8002550:	6818      	ldr	r0, [r3, #0]
 8002552:	60d8      	str	r0, [r3, #12]
 8002554:	4608      	mov	r0, r1
 8002556:	68d9      	ldr	r1, [r3, #12]
 8002558:	f7fd fec4 	bl	80002e4 <memcpy>
 800255c:	bd10      	pop	{r4, pc}
 800255e:	4770      	bx	lr

08002560 <prvUnlockQueue>:
 8002560:	b538      	push	{r3, r4, r5, lr}
 8002562:	4605      	mov	r5, r0
 8002564:	f7ff f94e 	bl	8001804 <vPortEnterCritical>
 8002568:	f895 4045 	ldrb.w	r4, [r5, #69]	; 0x45
 800256c:	b264      	sxtb	r4, r4
 800256e:	e00a      	b.n	8002586 <prvUnlockQueue+0x26>
 8002570:	6a6b      	ldr	r3, [r5, #36]	; 0x24
 8002572:	b153      	cbz	r3, 800258a <prvUnlockQueue+0x2a>
 8002574:	f105 0024 	add.w	r0, r5, #36	; 0x24
 8002578:	f7ff fe18 	bl	80021ac <xTaskRemoveFromEventList>
 800257c:	b108      	cbz	r0, 8002582 <prvUnlockQueue+0x22>
 800257e:	f7ff feb1 	bl	80022e4 <vTaskMissedYield>
 8002582:	3c01      	subs	r4, #1
 8002584:	b264      	sxtb	r4, r4
 8002586:	2c00      	cmp	r4, #0
 8002588:	dcf2      	bgt.n	8002570 <prvUnlockQueue+0x10>
 800258a:	23ff      	movs	r3, #255	; 0xff
 800258c:	f885 3045 	strb.w	r3, [r5, #69]	; 0x45
 8002590:	f7ff f95a 	bl	8001848 <vPortExitCritical>
 8002594:	f7ff f936 	bl	8001804 <vPortEnterCritical>
 8002598:	f895 4044 	ldrb.w	r4, [r5, #68]	; 0x44
 800259c:	b264      	sxtb	r4, r4
 800259e:	e00a      	b.n	80025b6 <prvUnlockQueue+0x56>
 80025a0:	692b      	ldr	r3, [r5, #16]
 80025a2:	b153      	cbz	r3, 80025ba <prvUnlockQueue+0x5a>
 80025a4:	f105 0010 	add.w	r0, r5, #16
 80025a8:	f7ff fe00 	bl	80021ac <xTaskRemoveFromEventList>
 80025ac:	b108      	cbz	r0, 80025b2 <prvUnlockQueue+0x52>
 80025ae:	f7ff fe99 	bl	80022e4 <vTaskMissedYield>
 80025b2:	3c01      	subs	r4, #1
 80025b4:	b264      	sxtb	r4, r4
 80025b6:	2c00      	cmp	r4, #0
 80025b8:	dcf2      	bgt.n	80025a0 <prvUnlockQueue+0x40>
 80025ba:	23ff      	movs	r3, #255	; 0xff
 80025bc:	f885 3044 	strb.w	r3, [r5, #68]	; 0x44
 80025c0:	f7ff f942 	bl	8001848 <vPortExitCritical>
 80025c4:	bd38      	pop	{r3, r4, r5, pc}
 80025c6:	bf00      	nop

080025c8 <xQueueGenericReset>:
 80025c8:	b538      	push	{r3, r4, r5, lr}
 80025ca:	b940      	cbnz	r0, 80025de <xQueueGenericReset+0x16>
 80025cc:	f04f 0350 	mov.w	r3, #80	; 0x50
 80025d0:	f383 8811 	msr	BASEPRI, r3
 80025d4:	f3bf 8f6f 	isb	sy
 80025d8:	f3bf 8f4f 	dsb	sy
 80025dc:	e7fe      	b.n	80025dc <xQueueGenericReset+0x14>
 80025de:	4604      	mov	r4, r0
 80025e0:	460d      	mov	r5, r1
 80025e2:	f7ff f90f 	bl	8001804 <vPortEnterCritical>
 80025e6:	6821      	ldr	r1, [r4, #0]
 80025e8:	6be2      	ldr	r2, [r4, #60]	; 0x3c
 80025ea:	6c23      	ldr	r3, [r4, #64]	; 0x40
 80025ec:	fb03 1002 	mla	r0, r3, r2, r1
 80025f0:	6060      	str	r0, [r4, #4]
 80025f2:	2000      	movs	r0, #0
 80025f4:	63a0      	str	r0, [r4, #56]	; 0x38
 80025f6:	60a1      	str	r1, [r4, #8]
 80025f8:	3a01      	subs	r2, #1
 80025fa:	fb02 1303 	mla	r3, r2, r3, r1
 80025fe:	60e3      	str	r3, [r4, #12]
 8002600:	23ff      	movs	r3, #255	; 0xff
 8002602:	f884 3044 	strb.w	r3, [r4, #68]	; 0x44
 8002606:	f884 3045 	strb.w	r3, [r4, #69]	; 0x45
 800260a:	b97d      	cbnz	r5, 800262c <xQueueGenericReset+0x64>
 800260c:	6923      	ldr	r3, [r4, #16]
 800260e:	b1ab      	cbz	r3, 800263c <xQueueGenericReset+0x74>
 8002610:	f104 0010 	add.w	r0, r4, #16
 8002614:	f7ff fdca 	bl	80021ac <xTaskRemoveFromEventList>
 8002618:	b180      	cbz	r0, 800263c <xQueueGenericReset+0x74>
 800261a:	f04f 5280 	mov.w	r2, #268435456	; 0x10000000
 800261e:	4b09      	ldr	r3, [pc, #36]	; (8002644 <xQueueGenericReset+0x7c>)
 8002620:	601a      	str	r2, [r3, #0]
 8002622:	f3bf 8f4f 	dsb	sy
 8002626:	f3bf 8f6f 	isb	sy
 800262a:	e007      	b.n	800263c <xQueueGenericReset+0x74>
 800262c:	f104 0010 	add.w	r0, r4, #16
 8002630:	f7ff f9ee 	bl	8001a10 <vListInitialise>
 8002634:	f104 0024 	add.w	r0, r4, #36	; 0x24
 8002638:	f7ff f9ea 	bl	8001a10 <vListInitialise>
 800263c:	f7ff f904 	bl	8001848 <vPortExitCritical>
 8002640:	2001      	movs	r0, #1
 8002642:	bd38      	pop	{r3, r4, r5, pc}
 8002644:	e000ed04 	.word	0xe000ed04

08002648 <prvInitialiseNewQueue>:
 8002648:	b510      	push	{r4, lr}
 800264a:	9b02      	ldr	r3, [sp, #8]
 800264c:	460c      	mov	r4, r1
 800264e:	b909      	cbnz	r1, 8002654 <prvInitialiseNewQueue+0xc>
 8002650:	601b      	str	r3, [r3, #0]
 8002652:	e000      	b.n	8002656 <prvInitialiseNewQueue+0xe>
 8002654:	601a      	str	r2, [r3, #0]
 8002656:	63d8      	str	r0, [r3, #60]	; 0x3c
 8002658:	641c      	str	r4, [r3, #64]	; 0x40
 800265a:	2101      	movs	r1, #1
 800265c:	4618      	mov	r0, r3
 800265e:	f7ff ffb3 	bl	80025c8 <xQueueGenericReset>
 8002662:	bd10      	pop	{r4, pc}

08002664 <xQueueGenericCreate>:
 8002664:	b940      	cbnz	r0, 8002678 <xQueueGenericCreate+0x14>
 8002666:	f04f 0350 	mov.w	r3, #80	; 0x50
 800266a:	f383 8811 	msr	BASEPRI, r3
 800266e:	f3bf 8f6f 	isb	sy
 8002672:	f3bf 8f4f 	dsb	sy
 8002676:	e7fe      	b.n	8002676 <xQueueGenericCreate+0x12>
 8002678:	b5f0      	push	{r4, r5, r6, r7, lr}
 800267a:	b083      	sub	sp, #12
 800267c:	4603      	mov	r3, r0
 800267e:	b111      	cbz	r1, 8002686 <xQueueGenericCreate+0x22>
 8002680:	fb01 f000 	mul.w	r0, r1, r0
 8002684:	e000      	b.n	8002688 <xQueueGenericCreate+0x24>
 8002686:	2000      	movs	r0, #0
 8002688:	461d      	mov	r5, r3
 800268a:	4617      	mov	r7, r2
 800268c:	460c      	mov	r4, r1
 800268e:	3048      	adds	r0, #72	; 0x48
 8002690:	f7fe ffa8 	bl	80015e4 <pvPortMalloc>
 8002694:	4606      	mov	r6, r0
 8002696:	b138      	cbz	r0, 80026a8 <xQueueGenericCreate+0x44>
 8002698:	9000      	str	r0, [sp, #0]
 800269a:	463b      	mov	r3, r7
 800269c:	f100 0248 	add.w	r2, r0, #72	; 0x48
 80026a0:	4621      	mov	r1, r4
 80026a2:	4628      	mov	r0, r5
 80026a4:	f7ff ffd0 	bl	8002648 <prvInitialiseNewQueue>
 80026a8:	4630      	mov	r0, r6
 80026aa:	b003      	add	sp, #12
 80026ac:	bdf0      	pop	{r4, r5, r6, r7, pc}
 80026ae:	bf00      	nop

080026b0 <xQueueGenericSend>:
 80026b0:	b5f0      	push	{r4, r5, r6, r7, lr}
 80026b2:	b085      	sub	sp, #20
 80026b4:	9201      	str	r2, [sp, #4]
 80026b6:	b940      	cbnz	r0, 80026ca <xQueueGenericSend+0x1a>
 80026b8:	f04f 0350 	mov.w	r3, #80	; 0x50
 80026bc:	f383 8811 	msr	BASEPRI, r3
 80026c0:	f3bf 8f6f 	isb	sy
 80026c4:	f3bf 8f4f 	dsb	sy
 80026c8:	e7fe      	b.n	80026c8 <xQueueGenericSend+0x18>
 80026ca:	4604      	mov	r4, r0
 80026cc:	b919      	cbnz	r1, 80026d6 <xQueueGenericSend+0x26>
 80026ce:	6c02      	ldr	r2, [r0, #64]	; 0x40
 80026d0:	b91a      	cbnz	r2, 80026da <xQueueGenericSend+0x2a>
 80026d2:	2201      	movs	r2, #1
 80026d4:	e002      	b.n	80026dc <xQueueGenericSend+0x2c>
 80026d6:	2201      	movs	r2, #1
 80026d8:	e000      	b.n	80026dc <xQueueGenericSend+0x2c>
 80026da:	2200      	movs	r2, #0
 80026dc:	b942      	cbnz	r2, 80026f0 <xQueueGenericSend+0x40>
 80026de:	f04f 0350 	mov.w	r3, #80	; 0x50
 80026e2:	f383 8811 	msr	BASEPRI, r3
 80026e6:	f3bf 8f6f 	isb	sy
 80026ea:	f3bf 8f4f 	dsb	sy
 80026ee:	e7fe      	b.n	80026ee <xQueueGenericSend+0x3e>
 80026f0:	2b02      	cmp	r3, #2
 80026f2:	d103      	bne.n	80026fc <xQueueGenericSend+0x4c>
 80026f4:	6be2      	ldr	r2, [r4, #60]	; 0x3c
 80026f6:	2a01      	cmp	r2, #1
 80026f8:	d102      	bne.n	8002700 <xQueueGenericSend+0x50>
 80026fa:	e002      	b.n	8002702 <xQueueGenericSend+0x52>
 80026fc:	2201      	movs	r2, #1
 80026fe:	e000      	b.n	8002702 <xQueueGenericSend+0x52>
 8002700:	2200      	movs	r2, #0
 8002702:	b942      	cbnz	r2, 8002716 <xQueueGenericSend+0x66>
 8002704:	f04f 0350 	mov.w	r3, #80	; 0x50
 8002708:	f383 8811 	msr	BASEPRI, r3
 800270c:	f3bf 8f6f 	isb	sy
 8002710:	f3bf 8f4f 	dsb	sy
 8002714:	e7fe      	b.n	8002714 <xQueueGenericSend+0x64>
 8002716:	461d      	mov	r5, r3
 8002718:	460e      	mov	r6, r1
 800271a:	f7ff fde9 	bl	80022f0 <xTaskGetSchedulerState>
 800271e:	b918      	cbnz	r0, 8002728 <xQueueGenericSend+0x78>
 8002720:	9b01      	ldr	r3, [sp, #4]
 8002722:	b91b      	cbnz	r3, 800272c <xQueueGenericSend+0x7c>
 8002724:	2301      	movs	r3, #1
 8002726:	e002      	b.n	800272e <xQueueGenericSend+0x7e>
 8002728:	2301      	movs	r3, #1
 800272a:	e000      	b.n	800272e <xQueueGenericSend+0x7e>
 800272c:	2300      	movs	r3, #0
 800272e:	b943      	cbnz	r3, 8002742 <xQueueGenericSend+0x92>
 8002730:	f04f 0350 	mov.w	r3, #80	; 0x50
 8002734:	f383 8811 	msr	BASEPRI, r3
 8002738:	f3bf 8f6f 	isb	sy
 800273c:	f3bf 8f4f 	dsb	sy
 8002740:	e7fe      	b.n	8002740 <xQueueGenericSend+0x90>
 8002742:	2700      	movs	r7, #0
 8002744:	f7ff f85e 	bl	8001804 <vPortEnterCritical>
 8002748:	6ba2      	ldr	r2, [r4, #56]	; 0x38
 800274a:	6be3      	ldr	r3, [r4, #60]	; 0x3c
 800274c:	429a      	cmp	r2, r3
 800274e:	d301      	bcc.n	8002754 <xQueueGenericSend+0xa4>
 8002750:	2d02      	cmp	r5, #2
 8002752:	d121      	bne.n	8002798 <xQueueGenericSend+0xe8>
 8002754:	462a      	mov	r2, r5
 8002756:	4631      	mov	r1, r6
 8002758:	4620      	mov	r0, r4
 800275a:	f7ff feb3 	bl	80024c4 <prvCopyDataToQueue>
 800275e:	6a63      	ldr	r3, [r4, #36]	; 0x24
 8002760:	b16b      	cbz	r3, 800277e <xQueueGenericSend+0xce>
 8002762:	f104 0024 	add.w	r0, r4, #36	; 0x24
 8002766:	f7ff fd21 	bl	80021ac <xTaskRemoveFromEventList>
 800276a:	b188      	cbz	r0, 8002790 <xQueueGenericSend+0xe0>
 800276c:	f04f 5280 	mov.w	r2, #268435456	; 0x10000000
 8002770:	4b32      	ldr	r3, [pc, #200]	; (800283c <xQueueGenericSend+0x18c>)
 8002772:	601a      	str	r2, [r3, #0]
 8002774:	f3bf 8f4f 	dsb	sy
 8002778:	f3bf 8f6f 	isb	sy
 800277c:	e008      	b.n	8002790 <xQueueGenericSend+0xe0>
 800277e:	b138      	cbz	r0, 8002790 <xQueueGenericSend+0xe0>
 8002780:	f04f 5280 	mov.w	r2, #268435456	; 0x10000000
 8002784:	4b2d      	ldr	r3, [pc, #180]	; (800283c <xQueueGenericSend+0x18c>)
 8002786:	601a      	str	r2, [r3, #0]
 8002788:	f3bf 8f4f 	dsb	sy
 800278c:	f3bf 8f6f 	isb	sy
 8002790:	f7ff f85a 	bl	8001848 <vPortExitCritical>
 8002794:	2001      	movs	r0, #1
 8002796:	e04e      	b.n	8002836 <xQueueGenericSend+0x186>
 8002798:	9b01      	ldr	r3, [sp, #4]
 800279a:	b91b      	cbnz	r3, 80027a4 <xQueueGenericSend+0xf4>
 800279c:	f7ff f854 	bl	8001848 <vPortExitCritical>
 80027a0:	2000      	movs	r0, #0
 80027a2:	e048      	b.n	8002836 <xQueueGenericSend+0x186>
 80027a4:	b91f      	cbnz	r7, 80027ae <xQueueGenericSend+0xfe>
 80027a6:	a802      	add	r0, sp, #8
 80027a8:	f7ff fd46 	bl	8002238 <vTaskSetTimeOutState>
 80027ac:	2701      	movs	r7, #1
 80027ae:	f7ff f84b 	bl	8001848 <vPortExitCritical>
 80027b2:	f7ff fb1d 	bl	8001df0 <vTaskSuspendAll>
 80027b6:	f7ff f825 	bl	8001804 <vPortEnterCritical>
 80027ba:	f894 3044 	ldrb.w	r3, [r4, #68]	; 0x44
 80027be:	b25b      	sxtb	r3, r3
 80027c0:	f1b3 3fff 	cmp.w	r3, #4294967295
 80027c4:	d102      	bne.n	80027cc <xQueueGenericSend+0x11c>
 80027c6:	2300      	movs	r3, #0
 80027c8:	f884 3044 	strb.w	r3, [r4, #68]	; 0x44
 80027cc:	f894 3045 	ldrb.w	r3, [r4, #69]	; 0x45
 80027d0:	b25b      	sxtb	r3, r3
 80027d2:	f1b3 3fff 	cmp.w	r3, #4294967295
 80027d6:	d102      	bne.n	80027de <xQueueGenericSend+0x12e>
 80027d8:	2300      	movs	r3, #0
 80027da:	f884 3045 	strb.w	r3, [r4, #69]	; 0x45
 80027de:	f7ff f833 	bl	8001848 <vPortExitCritical>
 80027e2:	a901      	add	r1, sp, #4
 80027e4:	a802      	add	r0, sp, #8
 80027e6:	f7ff fd3d 	bl	8002264 <xTaskCheckForTimeOut>
 80027ea:	b9f0      	cbnz	r0, 800282a <xQueueGenericSend+0x17a>
 80027ec:	4620      	mov	r0, r4
 80027ee:	f7ff fe4b 	bl	8002488 <prvIsQueueFull>
 80027f2:	b1a0      	cbz	r0, 800281e <xQueueGenericSend+0x16e>
 80027f4:	9901      	ldr	r1, [sp, #4]
 80027f6:	f104 0010 	add.w	r0, r4, #16
 80027fa:	f7ff fcbf 	bl	800217c <vTaskPlaceOnEventList>
 80027fe:	4620      	mov	r0, r4
 8002800:	f7ff feae 	bl	8002560 <prvUnlockQueue>
 8002804:	f7ff fb8e 	bl	8001f24 <xTaskResumeAll>
 8002808:	2800      	cmp	r0, #0
 800280a:	d19b      	bne.n	8002744 <xQueueGenericSend+0x94>
 800280c:	f04f 5280 	mov.w	r2, #268435456	; 0x10000000
 8002810:	4b0a      	ldr	r3, [pc, #40]	; (800283c <xQueueGenericSend+0x18c>)
 8002812:	601a      	str	r2, [r3, #0]
 8002814:	f3bf 8f4f 	dsb	sy
 8002818:	f3bf 8f6f 	isb	sy
 800281c:	e792      	b.n	8002744 <xQueueGenericSend+0x94>
 800281e:	4620      	mov	r0, r4
 8002820:	f7ff fe9e 	bl	8002560 <prvUnlockQueue>
 8002824:	f7ff fb7e 	bl	8001f24 <xTaskResumeAll>
 8002828:	e78c      	b.n	8002744 <xQueueGenericSend+0x94>
 800282a:	4620      	mov	r0, r4
 800282c:	f7ff fe98 	bl	8002560 <prvUnlockQueue>
 8002830:	f7ff fb78 	bl	8001f24 <xTaskResumeAll>
 8002834:	2000      	movs	r0, #0
 8002836:	b005      	add	sp, #20
 8002838:	bdf0      	pop	{r4, r5, r6, r7, pc}
 800283a:	bf00      	nop
 800283c:	e000ed04 	.word	0xe000ed04

08002840 <xQueueGenericSendFromISR>:
 8002840:	e92d 43f8 	stmdb	sp!, {r3, r4, r5, r6, r7, r8, r9, lr}
 8002844:	b940      	cbnz	r0, 8002858 <xQueueGenericSendFromISR+0x18>
 8002846:	f04f 0350 	mov.w	r3, #80	; 0x50
 800284a:	f383 8811 	msr	BASEPRI, r3
 800284e:	f3bf 8f6f 	isb	sy
 8002852:	f3bf 8f4f 	dsb	sy
 8002856:	e7fe      	b.n	8002856 <xQueueGenericSendFromISR+0x16>
 8002858:	4604      	mov	r4, r0
 800285a:	b919      	cbnz	r1, 8002864 <xQueueGenericSendFromISR+0x24>
 800285c:	6c00      	ldr	r0, [r0, #64]	; 0x40
 800285e:	b918      	cbnz	r0, 8002868 <xQueueGenericSendFromISR+0x28>
 8002860:	2001      	movs	r0, #1
 8002862:	e002      	b.n	800286a <xQueueGenericSendFromISR+0x2a>
 8002864:	2001      	movs	r0, #1
 8002866:	e000      	b.n	800286a <xQueueGenericSendFromISR+0x2a>
 8002868:	2000      	movs	r0, #0
 800286a:	b940      	cbnz	r0, 800287e <xQueueGenericSendFromISR+0x3e>
 800286c:	f04f 0350 	mov.w	r3, #80	; 0x50
 8002870:	f383 8811 	msr	BASEPRI, r3
 8002874:	f3bf 8f6f 	isb	sy
 8002878:	f3bf 8f4f 	dsb	sy
 800287c:	e7fe      	b.n	800287c <xQueueGenericSendFromISR+0x3c>
 800287e:	2b02      	cmp	r3, #2
 8002880:	d103      	bne.n	800288a <xQueueGenericSendFromISR+0x4a>
 8002882:	6be0      	ldr	r0, [r4, #60]	; 0x3c
 8002884:	2801      	cmp	r0, #1
 8002886:	d102      	bne.n	800288e <xQueueGenericSendFromISR+0x4e>
 8002888:	e002      	b.n	8002890 <xQueueGenericSendFromISR+0x50>
 800288a:	2001      	movs	r0, #1
 800288c:	e000      	b.n	8002890 <xQueueGenericSendFromISR+0x50>
 800288e:	2000      	movs	r0, #0
 8002890:	b940      	cbnz	r0, 80028a4 <xQueueGenericSendFromISR+0x64>
 8002892:	f04f 0350 	mov.w	r3, #80	; 0x50
 8002896:	f383 8811 	msr	BASEPRI, r3
 800289a:	f3bf 8f6f 	isb	sy
 800289e:	f3bf 8f4f 	dsb	sy
 80028a2:	e7fe      	b.n	80028a2 <xQueueGenericSendFromISR+0x62>
 80028a4:	461f      	mov	r7, r3
 80028a6:	4690      	mov	r8, r2
 80028a8:	4689      	mov	r9, r1
 80028aa:	f7ff f883 	bl	80019b4 <vPortValidateInterruptPriority>
 80028ae:	f3ef 8611 	mrs	r6, BASEPRI
 80028b2:	f04f 0350 	mov.w	r3, #80	; 0x50
 80028b6:	f383 8811 	msr	BASEPRI, r3
 80028ba:	f3bf 8f6f 	isb	sy
 80028be:	f3bf 8f4f 	dsb	sy
 80028c2:	6ba2      	ldr	r2, [r4, #56]	; 0x38
 80028c4:	6be3      	ldr	r3, [r4, #60]	; 0x3c
 80028c6:	429a      	cmp	r2, r3
 80028c8:	d301      	bcc.n	80028ce <xQueueGenericSendFromISR+0x8e>
 80028ca:	2f02      	cmp	r7, #2
 80028cc:	d11e      	bne.n	800290c <xQueueGenericSendFromISR+0xcc>
 80028ce:	f894 5045 	ldrb.w	r5, [r4, #69]	; 0x45
 80028d2:	b26d      	sxtb	r5, r5
 80028d4:	463a      	mov	r2, r7
 80028d6:	4649      	mov	r1, r9
 80028d8:	4620      	mov	r0, r4
 80028da:	f7ff fdf3 	bl	80024c4 <prvCopyDataToQueue>
 80028de:	f1b5 3fff 	cmp.w	r5, #4294967295
 80028e2:	d10d      	bne.n	8002900 <xQueueGenericSendFromISR+0xc0>
 80028e4:	6a63      	ldr	r3, [r4, #36]	; 0x24
 80028e6:	b19b      	cbz	r3, 8002910 <xQueueGenericSendFromISR+0xd0>
 80028e8:	f104 0024 	add.w	r0, r4, #36	; 0x24
 80028ec:	f7ff fc5e 	bl	80021ac <xTaskRemoveFromEventList>
 80028f0:	b180      	cbz	r0, 8002914 <xQueueGenericSendFromISR+0xd4>
 80028f2:	f1b8 0f00 	cmp.w	r8, #0
 80028f6:	d00f      	beq.n	8002918 <xQueueGenericSendFromISR+0xd8>
 80028f8:	2001      	movs	r0, #1
 80028fa:	f8c8 0000 	str.w	r0, [r8]
 80028fe:	e00c      	b.n	800291a <xQueueGenericSendFromISR+0xda>
 8002900:	1c6b      	adds	r3, r5, #1
 8002902:	b25b      	sxtb	r3, r3
 8002904:	f884 3045 	strb.w	r3, [r4, #69]	; 0x45
 8002908:	2001      	movs	r0, #1
 800290a:	e006      	b.n	800291a <xQueueGenericSendFromISR+0xda>
 800290c:	2000      	movs	r0, #0
 800290e:	e004      	b.n	800291a <xQueueGenericSendFromISR+0xda>
 8002910:	2001      	movs	r0, #1
 8002912:	e002      	b.n	800291a <xQueueGenericSendFromISR+0xda>
 8002914:	2001      	movs	r0, #1
 8002916:	e000      	b.n	800291a <xQueueGenericSendFromISR+0xda>
 8002918:	2001      	movs	r0, #1
 800291a:	f386 8811 	msr	BASEPRI, r6
 800291e:	e8bd 83f8 	ldmia.w	sp!, {r3, r4, r5, r6, r7, r8, r9, pc}
 8002922:	bf00      	nop

08002924 <xQueueGenericReceive>:
 8002924:	e92d 41f0 	stmdb	sp!, {r4, r5, r6, r7, r8, lr}
 8002928:	b084      	sub	sp, #16
 800292a:	9201      	str	r2, [sp, #4]
 800292c:	b940      	cbnz	r0, 8002940 <xQueueGenericReceive+0x1c>
 800292e:	f04f 0350 	mov.w	r3, #80	; 0x50
 8002932:	f383 8811 	msr	BASEPRI, r3
 8002936:	f3bf 8f6f 	isb	sy
 800293a:	f3bf 8f4f 	dsb	sy
 800293e:	e7fe      	b.n	800293e <xQueueGenericReceive+0x1a>
 8002940:	4604      	mov	r4, r0
 8002942:	b919      	cbnz	r1, 800294c <xQueueGenericReceive+0x28>
 8002944:	6c02      	ldr	r2, [r0, #64]	; 0x40
 8002946:	b91a      	cbnz	r2, 8002950 <xQueueGenericReceive+0x2c>
 8002948:	2201      	movs	r2, #1
 800294a:	e002      	b.n	8002952 <xQueueGenericReceive+0x2e>
 800294c:	2201      	movs	r2, #1
 800294e:	e000      	b.n	8002952 <xQueueGenericReceive+0x2e>
 8002950:	2200      	movs	r2, #0
 8002952:	b942      	cbnz	r2, 8002966 <xQueueGenericReceive+0x42>
 8002954:	f04f 0350 	mov.w	r3, #80	; 0x50
 8002958:	f383 8811 	msr	BASEPRI, r3
 800295c:	f3bf 8f6f 	isb	sy
 8002960:	f3bf 8f4f 	dsb	sy
 8002964:	e7fe      	b.n	8002964 <xQueueGenericReceive+0x40>
 8002966:	461f      	mov	r7, r3
 8002968:	4688      	mov	r8, r1
 800296a:	f7ff fcc1 	bl	80022f0 <xTaskGetSchedulerState>
 800296e:	b918      	cbnz	r0, 8002978 <xQueueGenericReceive+0x54>
 8002970:	9b01      	ldr	r3, [sp, #4]
 8002972:	b91b      	cbnz	r3, 800297c <xQueueGenericReceive+0x58>
 8002974:	2301      	movs	r3, #1
 8002976:	e002      	b.n	800297e <xQueueGenericReceive+0x5a>
 8002978:	2301      	movs	r3, #1
 800297a:	e000      	b.n	800297e <xQueueGenericReceive+0x5a>
 800297c:	2300      	movs	r3, #0
 800297e:	b943      	cbnz	r3, 8002992 <xQueueGenericReceive+0x6e>
 8002980:	f04f 0350 	mov.w	r3, #80	; 0x50
 8002984:	f383 8811 	msr	BASEPRI, r3
 8002988:	f3bf 8f6f 	isb	sy
 800298c:	f3bf 8f4f 	dsb	sy
 8002990:	e7fe      	b.n	8002990 <xQueueGenericReceive+0x6c>
 8002992:	2600      	movs	r6, #0
 8002994:	f7fe ff36 	bl	8001804 <vPortEnterCritical>
 8002998:	6ba5      	ldr	r5, [r4, #56]	; 0x38
 800299a:	b385      	cbz	r5, 80029fe <xQueueGenericReceive+0xda>
 800299c:	68e6      	ldr	r6, [r4, #12]
 800299e:	4641      	mov	r1, r8
 80029a0:	4620      	mov	r0, r4
 80029a2:	f7ff fdcb 	bl	800253c <prvCopyDataFromQueue>
 80029a6:	b9b7      	cbnz	r7, 80029d6 <xQueueGenericReceive+0xb2>
 80029a8:	3d01      	subs	r5, #1
 80029aa:	63a5      	str	r5, [r4, #56]	; 0x38
 80029ac:	6823      	ldr	r3, [r4, #0]
 80029ae:	b913      	cbnz	r3, 80029b6 <xQueueGenericReceive+0x92>
 80029b0:	f7ff fd5c 	bl	800246c <pvTaskIncrementMutexHeldCount>
 80029b4:	6060      	str	r0, [r4, #4]
 80029b6:	6923      	ldr	r3, [r4, #16]
 80029b8:	b1eb      	cbz	r3, 80029f6 <xQueueGenericReceive+0xd2>
 80029ba:	f104 0010 	add.w	r0, r4, #16
 80029be:	f7ff fbf5 	bl	80021ac <xTaskRemoveFromEventList>
 80029c2:	b1c0      	cbz	r0, 80029f6 <xQueueGenericReceive+0xd2>
 80029c4:	f04f 5280 	mov.w	r2, #268435456	; 0x10000000
 80029c8:	4b3d      	ldr	r3, [pc, #244]	; (8002ac0 <xQueueGenericReceive+0x19c>)
 80029ca:	601a      	str	r2, [r3, #0]
 80029cc:	f3bf 8f4f 	dsb	sy
 80029d0:	f3bf 8f6f 	isb	sy
 80029d4:	e00f      	b.n	80029f6 <xQueueGenericReceive+0xd2>
 80029d6:	60e6      	str	r6, [r4, #12]
 80029d8:	6a63      	ldr	r3, [r4, #36]	; 0x24
 80029da:	b163      	cbz	r3, 80029f6 <xQueueGenericReceive+0xd2>
 80029dc:	f104 0024 	add.w	r0, r4, #36	; 0x24
 80029e0:	f7ff fbe4 	bl	80021ac <xTaskRemoveFromEventList>
 80029e4:	b138      	cbz	r0, 80029f6 <xQueueGenericReceive+0xd2>
 80029e6:	f04f 5280 	mov.w	r2, #268435456	; 0x10000000
 80029ea:	4b35      	ldr	r3, [pc, #212]	; (8002ac0 <xQueueGenericReceive+0x19c>)
 80029ec:	601a      	str	r2, [r3, #0]
 80029ee:	f3bf 8f4f 	dsb	sy
 80029f2:	f3bf 8f6f 	isb	sy
 80029f6:	f7fe ff27 	bl	8001848 <vPortExitCritical>
 80029fa:	2001      	movs	r0, #1
 80029fc:	e05d      	b.n	8002aba <xQueueGenericReceive+0x196>
 80029fe:	9b01      	ldr	r3, [sp, #4]
 8002a00:	b91b      	cbnz	r3, 8002a0a <xQueueGenericReceive+0xe6>
 8002a02:	f7fe ff21 	bl	8001848 <vPortExitCritical>
 8002a06:	2000      	movs	r0, #0
 8002a08:	e057      	b.n	8002aba <xQueueGenericReceive+0x196>
 8002a0a:	b91e      	cbnz	r6, 8002a14 <xQueueGenericReceive+0xf0>
 8002a0c:	a802      	add	r0, sp, #8
 8002a0e:	f7ff fc13 	bl	8002238 <vTaskSetTimeOutState>
 8002a12:	2601      	movs	r6, #1
 8002a14:	f7fe ff18 	bl	8001848 <vPortExitCritical>
 8002a18:	f7ff f9ea 	bl	8001df0 <vTaskSuspendAll>
 8002a1c:	f7fe fef2 	bl	8001804 <vPortEnterCritical>
 8002a20:	f894 3044 	ldrb.w	r3, [r4, #68]	; 0x44
 8002a24:	b25b      	sxtb	r3, r3
 8002a26:	f1b3 3fff 	cmp.w	r3, #4294967295
 8002a2a:	d102      	bne.n	8002a32 <xQueueGenericReceive+0x10e>
 8002a2c:	2300      	movs	r3, #0
 8002a2e:	f884 3044 	strb.w	r3, [r4, #68]	; 0x44
 8002a32:	f894 3045 	ldrb.w	r3, [r4, #69]	; 0x45
 8002a36:	b25b      	sxtb	r3, r3
 8002a38:	f1b3 3fff 	cmp.w	r3, #4294967295
 8002a3c:	d102      	bne.n	8002a44 <xQueueGenericReceive+0x120>
 8002a3e:	2300      	movs	r3, #0
 8002a40:	f884 3045 	strb.w	r3, [r4, #69]	; 0x45
 8002a44:	f7fe ff00 	bl	8001848 <vPortExitCritical>
 8002a48:	a901      	add	r1, sp, #4
 8002a4a:	a802      	add	r0, sp, #8
 8002a4c:	f7ff fc0a 	bl	8002264 <xTaskCheckForTimeOut>
 8002a50:	bb38      	cbnz	r0, 8002aa2 <xQueueGenericReceive+0x17e>
 8002a52:	4620      	mov	r0, r4
 8002a54:	f7ff fd28 	bl	80024a8 <prvIsQueueEmpty>
 8002a58:	b1e8      	cbz	r0, 8002a96 <xQueueGenericReceive+0x172>
 8002a5a:	6823      	ldr	r3, [r4, #0]
 8002a5c:	b933      	cbnz	r3, 8002a6c <xQueueGenericReceive+0x148>
 8002a5e:	f7fe fed1 	bl	8001804 <vPortEnterCritical>
 8002a62:	6860      	ldr	r0, [r4, #4]
 8002a64:	f7ff fc54 	bl	8002310 <vTaskPriorityInherit>
 8002a68:	f7fe feee 	bl	8001848 <vPortExitCritical>
 8002a6c:	9901      	ldr	r1, [sp, #4]
 8002a6e:	f104 0024 	add.w	r0, r4, #36	; 0x24
 8002a72:	f7ff fb83 	bl	800217c <vTaskPlaceOnEventList>
 8002a76:	4620      	mov	r0, r4
 8002a78:	f7ff fd72 	bl	8002560 <prvUnlockQueue>
 8002a7c:	f7ff fa52 	bl	8001f24 <xTaskResumeAll>
 8002a80:	2800      	cmp	r0, #0
 8002a82:	d187      	bne.n	8002994 <xQueueGenericReceive+0x70>
 8002a84:	f04f 5280 	mov.w	r2, #268435456	; 0x10000000
 8002a88:	4b0d      	ldr	r3, [pc, #52]	; (8002ac0 <xQueueGenericReceive+0x19c>)
 8002a8a:	601a      	str	r2, [r3, #0]
 8002a8c:	f3bf 8f4f 	dsb	sy
 8002a90:	f3bf 8f6f 	isb	sy
 8002a94:	e77e      	b.n	8002994 <xQueueGenericReceive+0x70>
 8002a96:	4620      	mov	r0, r4
 8002a98:	f7ff fd62 	bl	8002560 <prvUnlockQueue>
 8002a9c:	f7ff fa42 	bl	8001f24 <xTaskResumeAll>
 8002aa0:	e778      	b.n	8002994 <xQueueGenericReceive+0x70>
 8002aa2:	4620      	mov	r0, r4
 8002aa4:	f7ff fd5c 	bl	8002560 <prvUnlockQueue>
 8002aa8:	f7ff fa3c 	bl	8001f24 <xTaskResumeAll>
 8002aac:	4620      	mov	r0, r4
 8002aae:	f7ff fcfb 	bl	80024a8 <prvIsQueueEmpty>
 8002ab2:	2800      	cmp	r0, #0
 8002ab4:	f43f af6e 	beq.w	8002994 <xQueueGenericReceive+0x70>
 8002ab8:	2000      	movs	r0, #0
 8002aba:	b004      	add	sp, #16
 8002abc:	e8bd 81f0 	ldmia.w	sp!, {r4, r5, r6, r7, r8, pc}
 8002ac0:	e000ed04 	.word	0xe000ed04

08002ac4 <xQueueReceiveFromISR>:
 8002ac4:	e92d 43f8 	stmdb	sp!, {r3, r4, r5, r6, r7, r8, r9, lr}
 8002ac8:	b940      	cbnz	r0, 8002adc <xQueueReceiveFromISR+0x18>
 8002aca:	f04f 0350 	mov.w	r3, #80	; 0x50
 8002ace:	f383 8811 	msr	BASEPRI, r3
 8002ad2:	f3bf 8f6f 	isb	sy
 8002ad6:	f3bf 8f4f 	dsb	sy
 8002ada:	e7fe      	b.n	8002ada <xQueueReceiveFromISR+0x16>
 8002adc:	4604      	mov	r4, r0
 8002ade:	b919      	cbnz	r1, 8002ae8 <xQueueReceiveFromISR+0x24>
 8002ae0:	6c03      	ldr	r3, [r0, #64]	; 0x40
 8002ae2:	b91b      	cbnz	r3, 8002aec <xQueueReceiveFromISR+0x28>
 8002ae4:	2301      	movs	r3, #1
 8002ae6:	e002      	b.n	8002aee <xQueueReceiveFromISR+0x2a>
 8002ae8:	2301      	movs	r3, #1
 8002aea:	e000      	b.n	8002aee <xQueueReceiveFromISR+0x2a>
 8002aec:	2300      	movs	r3, #0
 8002aee:	b943      	cbnz	r3, 8002b02 <xQueueReceiveFromISR+0x3e>
 8002af0:	f04f 0350 	mov.w	r3, #80	; 0x50
 8002af4:	f383 8811 	msr	BASEPRI, r3
 8002af8:	f3bf 8f6f 	isb	sy
 8002afc:	f3bf 8f4f 	dsb	sy
 8002b00:	e7fe      	b.n	8002b00 <xQueueReceiveFromISR+0x3c>
 8002b02:	4617      	mov	r7, r2
 8002b04:	4689      	mov	r9, r1
 8002b06:	f7fe ff55 	bl	80019b4 <vPortValidateInterruptPriority>
 8002b0a:	f3ef 8611 	mrs	r6, BASEPRI
 8002b0e:	f04f 0350 	mov.w	r3, #80	; 0x50
 8002b12:	f383 8811 	msr	BASEPRI, r3
 8002b16:	f3bf 8f6f 	isb	sy
 8002b1a:	f3bf 8f4f 	dsb	sy
 8002b1e:	f8d4 8038 	ldr.w	r8, [r4, #56]	; 0x38
 8002b22:	f1b8 0f00 	cmp.w	r8, #0
 8002b26:	d01d      	beq.n	8002b64 <xQueueReceiveFromISR+0xa0>
 8002b28:	f894 5044 	ldrb.w	r5, [r4, #68]	; 0x44
 8002b2c:	b26d      	sxtb	r5, r5
 8002b2e:	4649      	mov	r1, r9
 8002b30:	4620      	mov	r0, r4
 8002b32:	f7ff fd03 	bl	800253c <prvCopyDataFromQueue>
 8002b36:	f108 33ff 	add.w	r3, r8, #4294967295
 8002b3a:	63a3      	str	r3, [r4, #56]	; 0x38
 8002b3c:	f1b5 3fff 	cmp.w	r5, #4294967295
 8002b40:	d10a      	bne.n	8002b58 <xQueueReceiveFromISR+0x94>
 8002b42:	6923      	ldr	r3, [r4, #16]
 8002b44:	b183      	cbz	r3, 8002b68 <xQueueReceiveFromISR+0xa4>
 8002b46:	f104 0010 	add.w	r0, r4, #16
 8002b4a:	f7ff fb2f 	bl	80021ac <xTaskRemoveFromEventList>
 8002b4e:	b168      	cbz	r0, 8002b6c <xQueueReceiveFromISR+0xa8>
 8002b50:	b177      	cbz	r7, 8002b70 <xQueueReceiveFromISR+0xac>
 8002b52:	2001      	movs	r0, #1
 8002b54:	6038      	str	r0, [r7, #0]
 8002b56:	e00c      	b.n	8002b72 <xQueueReceiveFromISR+0xae>
 8002b58:	1c6b      	adds	r3, r5, #1
 8002b5a:	b25b      	sxtb	r3, r3
 8002b5c:	f884 3044 	strb.w	r3, [r4, #68]	; 0x44
 8002b60:	2001      	movs	r0, #1
 8002b62:	e006      	b.n	8002b72 <xQueueReceiveFromISR+0xae>
 8002b64:	2000      	movs	r0, #0
 8002b66:	e004      	b.n	8002b72 <xQueueReceiveFromISR+0xae>
 8002b68:	2001      	movs	r0, #1
 8002b6a:	e002      	b.n	8002b72 <xQueueReceiveFromISR+0xae>
 8002b6c:	2001      	movs	r0, #1
 8002b6e:	e000      	b.n	8002b72 <xQueueReceiveFromISR+0xae>
 8002b70:	2001      	movs	r0, #1
 8002b72:	f386 8811 	msr	BASEPRI, r6
 8002b76:	e8bd 83f8 	ldmia.w	sp!, {r3, r4, r5, r6, r7, r8, r9, pc}
 8002b7a:	bf00      	nop

08002b7c <makeFreeRtosPriority>:
 8002b7c:	2884      	cmp	r0, #132	; 0x84
 8002b7e:	d001      	beq.n	8002b84 <makeFreeRtosPriority+0x8>
 8002b80:	3003      	adds	r0, #3
 8002b82:	4770      	bx	lr
 8002b84:	2000      	movs	r0, #0
 8002b86:	4770      	bx	lr

08002b88 <inHandlerMode>:
 8002b88:	f3ef 8005 	mrs	r0, IPSR
 8002b8c:	3000      	adds	r0, #0
 8002b8e:	bf18      	it	ne
 8002b90:	2001      	movne	r0, #1
 8002b92:	4770      	bx	lr

08002b94 <osKernelStart>:
 8002b94:	b508      	push	{r3, lr}
 8002b96:	f7ff f8ed 	bl	8001d74 <vTaskStartScheduler>
 8002b9a:	2000      	movs	r0, #0
 8002b9c:	bd08      	pop	{r3, pc}
 8002b9e:	bf00      	nop

08002ba0 <osThreadCreate>:
 8002ba0:	b5f0      	push	{r4, r5, r6, r7, lr}
 8002ba2:	b085      	sub	sp, #20
 8002ba4:	460f      	mov	r7, r1
 8002ba6:	6844      	ldr	r4, [r0, #4]
 8002ba8:	6805      	ldr	r5, [r0, #0]
 8002baa:	6906      	ldr	r6, [r0, #16]
 8002bac:	f9b0 0008 	ldrsh.w	r0, [r0, #8]
 8002bb0:	f7ff ffe4 	bl	8002b7c <makeFreeRtosPriority>
 8002bb4:	ab03      	add	r3, sp, #12
 8002bb6:	9301      	str	r3, [sp, #4]
 8002bb8:	9000      	str	r0, [sp, #0]
 8002bba:	463b      	mov	r3, r7
 8002bbc:	b2b2      	uxth	r2, r6
 8002bbe:	4629      	mov	r1, r5
 8002bc0:	4620      	mov	r0, r4
 8002bc2:	f7ff f8a5 	bl	8001d10 <xTaskCreate>
 8002bc6:	2801      	cmp	r0, #1
 8002bc8:	d101      	bne.n	8002bce <osThreadCreate+0x2e>
 8002bca:	9803      	ldr	r0, [sp, #12]
 8002bcc:	e000      	b.n	8002bd0 <osThreadCreate+0x30>
 8002bce:	2000      	movs	r0, #0
 8002bd0:	b005      	add	sp, #20
 8002bd2:	bdf0      	pop	{r4, r5, r6, r7, pc}

08002bd4 <osDelay>:
 8002bd4:	b508      	push	{r3, lr}
 8002bd6:	b908      	cbnz	r0, 8002bdc <osDelay+0x8>
 8002bd8:	2001      	movs	r0, #1
 8002bda:	e7ff      	b.n	8002bdc <osDelay+0x8>
 8002bdc:	f7ff fa1e 	bl	800201c <vTaskDelay>
 8002be0:	2000      	movs	r0, #0
 8002be2:	bd08      	pop	{r3, pc}

08002be4 <osPoolCreate>:
 8002be4:	b570      	push	{r4, r5, r6, lr}
 8002be6:	4605      	mov	r5, r0
 8002be8:	6846      	ldr	r6, [r0, #4]
 8002bea:	2014      	movs	r0, #20
 8002bec:	f7fe fcfa 	bl	80015e4 <pvPortMalloc>
 8002bf0:	4604      	mov	r4, r0
 8002bf2:	b350      	cbz	r0, 8002c4a <osPoolCreate+0x66>
 8002bf4:	3603      	adds	r6, #3
 8002bf6:	f026 0603 	bic.w	r6, r6, #3
 8002bfa:	682b      	ldr	r3, [r5, #0]
 8002bfc:	6083      	str	r3, [r0, #8]
 8002bfe:	60c6      	str	r6, [r0, #12]
 8002c00:	2300      	movs	r3, #0
 8002c02:	6103      	str	r3, [r0, #16]
 8002c04:	6828      	ldr	r0, [r5, #0]
 8002c06:	f7fe fced 	bl	80015e4 <pvPortMalloc>
 8002c0a:	6060      	str	r0, [r4, #4]
 8002c0c:	b1c8      	cbz	r0, 8002c42 <osPoolCreate+0x5e>
 8002c0e:	6828      	ldr	r0, [r5, #0]
 8002c10:	fb00 f006 	mul.w	r0, r0, r6
 8002c14:	f7fe fce6 	bl	80015e4 <pvPortMalloc>
 8002c18:	6020      	str	r0, [r4, #0]
 8002c1a:	b928      	cbnz	r0, 8002c28 <osPoolCreate+0x44>
 8002c1c:	e009      	b.n	8002c32 <osPoolCreate+0x4e>
 8002c1e:	6862      	ldr	r2, [r4, #4]
 8002c20:	2100      	movs	r1, #0
 8002c22:	54d1      	strb	r1, [r2, r3]
 8002c24:	3301      	adds	r3, #1
 8002c26:	e000      	b.n	8002c2a <osPoolCreate+0x46>
 8002c28:	2300      	movs	r3, #0
 8002c2a:	682a      	ldr	r2, [r5, #0]
 8002c2c:	4293      	cmp	r3, r2
 8002c2e:	d3f6      	bcc.n	8002c1e <osPoolCreate+0x3a>
 8002c30:	e00b      	b.n	8002c4a <osPoolCreate+0x66>
 8002c32:	6860      	ldr	r0, [r4, #4]
 8002c34:	f7fe fd58 	bl	80016e8 <vPortFree>
 8002c38:	4620      	mov	r0, r4
 8002c3a:	f7fe fd55 	bl	80016e8 <vPortFree>
 8002c3e:	2400      	movs	r4, #0
 8002c40:	e003      	b.n	8002c4a <osPoolCreate+0x66>
 8002c42:	4620      	mov	r0, r4
 8002c44:	f7fe fd50 	bl	80016e8 <vPortFree>
 8002c48:	2400      	movs	r4, #0
 8002c4a:	4620      	mov	r0, r4
 8002c4c:	bd70      	pop	{r4, r5, r6, pc}
 8002c4e:	bf00      	nop

08002c50 <osMailCreate>:
 8002c50:	b530      	push	{r4, r5, lr}
 8002c52:	b085      	sub	sp, #20
 8002c54:	4604      	mov	r4, r0
 8002c56:	6803      	ldr	r3, [r0, #0]
 8002c58:	9301      	str	r3, [sp, #4]
 8002c5a:	6843      	ldr	r3, [r0, #4]
 8002c5c:	9302      	str	r3, [sp, #8]
 8002c5e:	2300      	movs	r3, #0
 8002c60:	9303      	str	r3, [sp, #12]
 8002c62:	6885      	ldr	r5, [r0, #8]
 8002c64:	200c      	movs	r0, #12
 8002c66:	f7fe fcbd 	bl	80015e4 <pvPortMalloc>
 8002c6a:	6028      	str	r0, [r5, #0]
 8002c6c:	68a3      	ldr	r3, [r4, #8]
 8002c6e:	6818      	ldr	r0, [r3, #0]
 8002c70:	b1e0      	cbz	r0, 8002cac <osMailCreate+0x5c>
 8002c72:	6004      	str	r4, [r0, #0]
 8002c74:	68a3      	ldr	r3, [r4, #8]
 8002c76:	681d      	ldr	r5, [r3, #0]
 8002c78:	2200      	movs	r2, #0
 8002c7a:	2104      	movs	r1, #4
 8002c7c:	6820      	ldr	r0, [r4, #0]
 8002c7e:	f7ff fcf1 	bl	8002664 <xQueueGenericCreate>
 8002c82:	6068      	str	r0, [r5, #4]
 8002c84:	68a3      	ldr	r3, [r4, #8]
 8002c86:	681d      	ldr	r5, [r3, #0]
 8002c88:	686b      	ldr	r3, [r5, #4]
 8002c8a:	b923      	cbnz	r3, 8002c96 <osMailCreate+0x46>
 8002c8c:	4628      	mov	r0, r5
 8002c8e:	f7fe fd2b 	bl	80016e8 <vPortFree>
 8002c92:	2000      	movs	r0, #0
 8002c94:	e00a      	b.n	8002cac <osMailCreate+0x5c>
 8002c96:	a801      	add	r0, sp, #4
 8002c98:	f7ff ffa4 	bl	8002be4 <osPoolCreate>
 8002c9c:	60a8      	str	r0, [r5, #8]
 8002c9e:	68a3      	ldr	r3, [r4, #8]
 8002ca0:	6818      	ldr	r0, [r3, #0]
 8002ca2:	6883      	ldr	r3, [r0, #8]
 8002ca4:	b913      	cbnz	r3, 8002cac <osMailCreate+0x5c>
 8002ca6:	f7fe fd1f 	bl	80016e8 <vPortFree>
 8002caa:	2000      	movs	r0, #0
 8002cac:	b005      	add	sp, #20
 8002cae:	bd30      	pop	{r4, r5, pc}

08002cb0 <osMailPut>:
 8002cb0:	b510      	push	{r4, lr}
 8002cb2:	b084      	sub	sp, #16
 8002cb4:	9101      	str	r1, [sp, #4]
 8002cb6:	b318      	cbz	r0, 8002d00 <osMailPut+0x50>
 8002cb8:	4604      	mov	r4, r0
 8002cba:	2300      	movs	r3, #0
 8002cbc:	9303      	str	r3, [sp, #12]
 8002cbe:	f7ff ff63 	bl	8002b88 <inHandlerMode>
 8002cc2:	b198      	cbz	r0, 8002cec <osMailPut+0x3c>
 8002cc4:	2300      	movs	r3, #0
 8002cc6:	aa03      	add	r2, sp, #12
 8002cc8:	a901      	add	r1, sp, #4
 8002cca:	6860      	ldr	r0, [r4, #4]
 8002ccc:	f7ff fdb8 	bl	8002840 <xQueueGenericSendFromISR>
 8002cd0:	2801      	cmp	r0, #1
 8002cd2:	d117      	bne.n	8002d04 <osMailPut+0x54>
 8002cd4:	9b03      	ldr	r3, [sp, #12]
 8002cd6:	b1bb      	cbz	r3, 8002d08 <osMailPut+0x58>
 8002cd8:	f04f 5280 	mov.w	r2, #268435456	; 0x10000000
 8002cdc:	4b0d      	ldr	r3, [pc, #52]	; (8002d14 <osMailPut+0x64>)
 8002cde:	601a      	str	r2, [r3, #0]
 8002ce0:	f3bf 8f4f 	dsb	sy
 8002ce4:	f3bf 8f6f 	isb	sy
 8002ce8:	2000      	movs	r0, #0
 8002cea:	e010      	b.n	8002d0e <osMailPut+0x5e>
 8002cec:	2300      	movs	r3, #0
 8002cee:	461a      	mov	r2, r3
 8002cf0:	a901      	add	r1, sp, #4
 8002cf2:	6860      	ldr	r0, [r4, #4]
 8002cf4:	f7ff fcdc 	bl	80026b0 <xQueueGenericSend>
 8002cf8:	2801      	cmp	r0, #1
 8002cfa:	d007      	beq.n	8002d0c <osMailPut+0x5c>
 8002cfc:	20ff      	movs	r0, #255	; 0xff
 8002cfe:	e006      	b.n	8002d0e <osMailPut+0x5e>
 8002d00:	2080      	movs	r0, #128	; 0x80
 8002d02:	e004      	b.n	8002d0e <osMailPut+0x5e>
 8002d04:	20ff      	movs	r0, #255	; 0xff
 8002d06:	e002      	b.n	8002d0e <osMailPut+0x5e>
 8002d08:	2000      	movs	r0, #0
 8002d0a:	e000      	b.n	8002d0e <osMailPut+0x5e>
 8002d0c:	2000      	movs	r0, #0
 8002d0e:	b004      	add	sp, #16
 8002d10:	bd10      	pop	{r4, pc}
 8002d12:	bf00      	nop
 8002d14:	e000ed04 	.word	0xe000ed04

08002d18 <osMailGet>:
 8002d18:	b570      	push	{r4, r5, r6, lr}
 8002d1a:	b084      	sub	sp, #16
 8002d1c:	4604      	mov	r4, r0
 8002d1e:	9102      	str	r1, [sp, #8]
 8002d20:	b941      	cbnz	r1, 8002d34 <osMailGet+0x1c>
 8002d22:	ab04      	add	r3, sp, #16
 8002d24:	2280      	movs	r2, #128	; 0x80
 8002d26:	f843 2d10 	str.w	r2, [r3, #-16]!
 8002d2a:	e893 0007 	ldmia.w	r3, {r0, r1, r2}
 8002d2e:	e884 0007 	stmia.w	r4, {r0, r1, r2}
 8002d32:	e037      	b.n	8002da4 <osMailGet+0x8c>
 8002d34:	460d      	mov	r5, r1
 8002d36:	4616      	mov	r6, r2
 8002d38:	2300      	movs	r3, #0
 8002d3a:	9303      	str	r3, [sp, #12]
 8002d3c:	f1b2 3fff 	cmp.w	r2, #4294967295
 8002d40:	d002      	beq.n	8002d48 <osMailGet+0x30>
 8002d42:	b10a      	cbz	r2, 8002d48 <osMailGet+0x30>
 8002d44:	b902      	cbnz	r2, 8002d48 <osMailGet+0x30>
 8002d46:	2601      	movs	r6, #1
 8002d48:	f7ff ff1e 	bl	8002b88 <inHandlerMode>
 8002d4c:	b1b0      	cbz	r0, 8002d7c <osMailGet+0x64>
 8002d4e:	aa03      	add	r2, sp, #12
 8002d50:	a901      	add	r1, sp, #4
 8002d52:	6868      	ldr	r0, [r5, #4]
 8002d54:	f7ff feb6 	bl	8002ac4 <xQueueReceiveFromISR>
 8002d58:	2801      	cmp	r0, #1
 8002d5a:	d102      	bne.n	8002d62 <osMailGet+0x4a>
 8002d5c:	2320      	movs	r3, #32
 8002d5e:	9300      	str	r3, [sp, #0]
 8002d60:	e001      	b.n	8002d66 <osMailGet+0x4e>
 8002d62:	2300      	movs	r3, #0
 8002d64:	9300      	str	r3, [sp, #0]
 8002d66:	9b03      	ldr	r3, [sp, #12]
 8002d68:	b1c3      	cbz	r3, 8002d9c <osMailGet+0x84>
 8002d6a:	f04f 5280 	mov.w	r2, #268435456	; 0x10000000
 8002d6e:	4b0f      	ldr	r3, [pc, #60]	; (8002dac <osMailGet+0x94>)
 8002d70:	601a      	str	r2, [r3, #0]
 8002d72:	f3bf 8f4f 	dsb	sy
 8002d76:	f3bf 8f6f 	isb	sy
 8002d7a:	e00f      	b.n	8002d9c <osMailGet+0x84>
 8002d7c:	2300      	movs	r3, #0
 8002d7e:	4632      	mov	r2, r6
 8002d80:	a901      	add	r1, sp, #4
 8002d82:	6868      	ldr	r0, [r5, #4]
 8002d84:	f7ff fdce 	bl	8002924 <xQueueGenericReceive>
 8002d88:	2801      	cmp	r0, #1
 8002d8a:	d102      	bne.n	8002d92 <osMailGet+0x7a>
 8002d8c:	2320      	movs	r3, #32
 8002d8e:	9300      	str	r3, [sp, #0]
 8002d90:	e004      	b.n	8002d9c <osMailGet+0x84>
 8002d92:	b90e      	cbnz	r6, 8002d98 <osMailGet+0x80>
 8002d94:	2300      	movs	r3, #0
 8002d96:	e000      	b.n	8002d9a <osMailGet+0x82>
 8002d98:	2340      	movs	r3, #64	; 0x40
 8002d9a:	9300      	str	r3, [sp, #0]
 8002d9c:	e89d 0007 	ldmia.w	sp, {r0, r1, r2}
 8002da0:	e884 0007 	stmia.w	r4, {r0, r1, r2}
 8002da4:	4620      	mov	r0, r4
 8002da6:	b004      	add	sp, #16
 8002da8:	bd70      	pop	{r4, r5, r6, pc}
 8002daa:	bf00      	nop
 8002dac:	e000ed04 	.word	0xe000ed04

08002db0 <osSystickHandler>:
 8002db0:	b508      	push	{r3, lr}
 8002db2:	f7ff fa9d 	bl	80022f0 <xTaskGetSchedulerState>
 8002db6:	2801      	cmp	r0, #1
 8002db8:	d001      	beq.n	8002dbe <osSystickHandler+0xe>
 8002dba:	f7fe fd83 	bl	80018c4 <xPortSysTickHandler>
 8002dbe:	bd08      	pop	{r3, pc}

08002dc0 <Reset_Handler>:
 8002dc0:	2100      	movs	r1, #0
 8002dc2:	e003      	b.n	8002dcc <LoopCopyDataInit>

08002dc4 <CopyDataInit>:
 8002dc4:	4b0b      	ldr	r3, [pc, #44]	; (8002df4 <LoopFillZerobss+0x14>)
 8002dc6:	585b      	ldr	r3, [r3, r1]
 8002dc8:	5043      	str	r3, [r0, r1]
 8002dca:	3104      	adds	r1, #4

08002dcc <LoopCopyDataInit>:
 8002dcc:	480a      	ldr	r0, [pc, #40]	; (8002df8 <LoopFillZerobss+0x18>)
 8002dce:	4b0b      	ldr	r3, [pc, #44]	; (8002dfc <LoopFillZerobss+0x1c>)
 8002dd0:	1842      	adds	r2, r0, r1
 8002dd2:	429a      	cmp	r2, r3
 8002dd4:	d3f6      	bcc.n	8002dc4 <CopyDataInit>
 8002dd6:	4a0a      	ldr	r2, [pc, #40]	; (8002e00 <LoopFillZerobss+0x20>)
 8002dd8:	e002      	b.n	8002de0 <LoopFillZerobss>

08002dda <FillZerobss>:
 8002dda:	2300      	movs	r3, #0
 8002ddc:	f842 3b04 	str.w	r3, [r2], #4

08002de0 <LoopFillZerobss>:
 8002de0:	4b08      	ldr	r3, [pc, #32]	; (8002e04 <LoopFillZerobss+0x24>)
 8002de2:	429a      	cmp	r2, r3
 8002de4:	d3f9      	bcc.n	8002dda <FillZerobss>
 8002de6:	f7fe fb7b 	bl	80014e0 <SystemInit>
 8002dea:	f7fd fa53 	bl	8000294 <__libc_init_array>
 8002dee:	f7fd fc7f 	bl	80006f0 <main>
 8002df2:	4770      	bx	lr
 8002df4:	08002eb4 	.word	0x08002eb4
 8002df8:	20000000 	.word	0x20000000
 8002dfc:	2000000c 	.word	0x2000000c
 8002e00:	2000000c 	.word	0x2000000c
 8002e04:	20000dcc 	.word	0x20000dcc

08002e08 <ADC1_2_IRQHandler>:
 8002e08:	e7fe      	b.n	8002e08 <ADC1_2_IRQHandler>
	...

08002e0c <_init>:
 8002e0c:	b5f8      	push	{r3, r4, r5, r6, r7, lr}
 8002e0e:	bf00      	nop
 8002e10:	bcf8      	pop	{r3, r4, r5, r6, r7}
 8002e12:	bc08      	pop	{r3}
 8002e14:	469e      	mov	lr, r3
 8002e16:	4770      	bx	lr

08002e18 <_fini>:
 8002e18:	b5f8      	push	{r3, r4, r5, r6, r7, lr}
 8002e1a:	bf00      	nop
 8002e1c:	bcf8      	pop	{r3, r4, r5, r6, r7}
 8002e1e:	bc08      	pop	{r3}
 8002e20:	469e      	mov	lr, r3
 8002e22:	4770      	bx	lr
